ARM GAS  C:\Users\Ethan\AppData\Local\Temp\ccvTTnkl.s 			page 1


   1              		.cpu cortex-m7
   2              		.eabi_attribute 28, 1
   3              		.eabi_attribute 20, 1
   4              		.eabi_attribute 21, 1
   5              		.eabi_attribute 23, 3
   6              		.eabi_attribute 24, 1
   7              		.eabi_attribute 25, 1
   8              		.eabi_attribute 26, 1
   9              		.eabi_attribute 30, 2
  10              		.eabi_attribute 34, 1
  11              		.eabi_attribute 18, 4
  12              		.file	"Testbed.cpp"
  13              		.text
  14              	.Ltext0:
  15              		.cfi_sections	.debug_frame
  16              		.section	.text._ZN7daisysp10OscillatorD2Ev,"axG",%progbits,_ZN7daisysp10OscillatorD5Ev,comdat
  17              		.align	1
  18              		.p2align 2,,3
  19              		.weak	_ZN7daisysp10OscillatorD2Ev
  20              		.arch armv7e-m
  21              		.syntax unified
  22              		.thumb
  23              		.thumb_func
  24              		.fpu fpv5-d16
  26              	_ZN7daisysp10OscillatorD2Ev:
  27              	.LVL0:
  28              	.LFB2830:
  29              		.file 1 "../../DaisySP/Source/Synthesis/oscillator.h"
   1:../../DaisySP/Source/Synthesis/oscillator.h **** #pragma once
   2:../../DaisySP/Source/Synthesis/oscillator.h **** #ifndef DSY_OSCILLATOR_H
   3:../../DaisySP/Source/Synthesis/oscillator.h **** #define DSY_OSCILLATOR_H
   4:../../DaisySP/Source/Synthesis/oscillator.h **** #include <stdint.h>
   5:../../DaisySP/Source/Synthesis/oscillator.h **** #include "Utility/dsp.h"
   6:../../DaisySP/Source/Synthesis/oscillator.h **** #ifdef __cplusplus
   7:../../DaisySP/Source/Synthesis/oscillator.h **** 
   8:../../DaisySP/Source/Synthesis/oscillator.h **** namespace daisysp
   9:../../DaisySP/Source/Synthesis/oscillator.h **** {
  10:../../DaisySP/Source/Synthesis/oscillator.h **** /** Synthesis of several waveforms, including polyBLEP bandlimited waveforms.
  11:../../DaisySP/Source/Synthesis/oscillator.h **** */
  12:../../DaisySP/Source/Synthesis/oscillator.h **** class Oscillator
  13:../../DaisySP/Source/Synthesis/oscillator.h **** {
  14:../../DaisySP/Source/Synthesis/oscillator.h ****   public:
  15:../../DaisySP/Source/Synthesis/oscillator.h ****     Oscillator() {}
  16:../../DaisySP/Source/Synthesis/oscillator.h ****     ~Oscillator() {}
  30              		.loc 1 16 5 view -0
  31              		.cfi_startproc
  32              		@ args = 0, pretend = 0, frame = 0
  33              		@ frame_needed = 0, uses_anonymous_args = 0
  34              		@ link register save eliminated.
  35              		.loc 1 16 20 is_stmt 0 view .LVU1
  36 0000 7047     		bx	lr
  37              		.cfi_endproc
  38              	.LFE2830:
  40              		.weak	_ZN7daisysp10OscillatorD1Ev
  41              		.thumb_set _ZN7daisysp10OscillatorD1Ev,_ZN7daisysp10OscillatorD2Ev
  42 0002 00BF     		.section	.text._ZN5daisy6SwitchD2Ev,"axG",%progbits,_ZN5daisy6SwitchD5Ev,comdat
  43              		.align	1
ARM GAS  C:\Users\Ethan\AppData\Local\Temp\ccvTTnkl.s 			page 2


  44              		.p2align 2,,3
  45              		.weak	_ZN5daisy6SwitchD2Ev
  46              		.syntax unified
  47              		.thumb
  48              		.thumb_func
  49              		.fpu fpv5-d16
  51              	_ZN5daisy6SwitchD2Ev:
  52              	.LVL1:
  53              	.LFB3822:
  54              		.file 2 "../../libDaisy/src/hid/switch.h"
   1:../../libDaisy/src/hid/switch.h **** #pragma once
   2:../../libDaisy/src/hid/switch.h **** #ifndef DSY_SWITCH_H
   3:../../libDaisy/src/hid/switch.h **** #define DSY_SWITCH_H
   4:../../libDaisy/src/hid/switch.h **** #include "daisy_core.h"
   5:../../libDaisy/src/hid/switch.h **** #include "per/gpio.h"
   6:../../libDaisy/src/hid/switch.h **** #include "sys/system.h"
   7:../../libDaisy/src/hid/switch.h **** 
   8:../../libDaisy/src/hid/switch.h **** namespace daisy
   9:../../libDaisy/src/hid/switch.h **** {
  10:../../libDaisy/src/hid/switch.h **** /** 
  11:../../libDaisy/src/hid/switch.h ****     Generic Class for handling momentary/latching switches \n 
  12:../../libDaisy/src/hid/switch.h ****     Inspired/influenced by Mutable Instruments (pichenettes) Switch classes
  13:../../libDaisy/src/hid/switch.h ****     @author Stephen Hensley
  14:../../libDaisy/src/hid/switch.h ****     @date December 2019
  15:../../libDaisy/src/hid/switch.h ****     @ingroup controls
  16:../../libDaisy/src/hid/switch.h **** */
  17:../../libDaisy/src/hid/switch.h **** class Switch
  18:../../libDaisy/src/hid/switch.h **** {
  19:../../libDaisy/src/hid/switch.h ****   public:
  20:../../libDaisy/src/hid/switch.h ****     /** Specifies the expected behavior of the switch */
  21:../../libDaisy/src/hid/switch.h ****     enum Type
  22:../../libDaisy/src/hid/switch.h ****     {
  23:../../libDaisy/src/hid/switch.h ****         TYPE_TOGGLE,    /**< & */
  24:../../libDaisy/src/hid/switch.h ****         TYPE_MOMENTARY, /**< & */
  25:../../libDaisy/src/hid/switch.h ****     };
  26:../../libDaisy/src/hid/switch.h ****     /** Specifies whether the pressed is HIGH or LOW. */
  27:../../libDaisy/src/hid/switch.h ****     enum Polarity
  28:../../libDaisy/src/hid/switch.h ****     {
  29:../../libDaisy/src/hid/switch.h ****         POLARITY_NORMAL,   /**< & */
  30:../../libDaisy/src/hid/switch.h ****         POLARITY_INVERTED, /**< & */
  31:../../libDaisy/src/hid/switch.h ****     };
  32:../../libDaisy/src/hid/switch.h **** 
  33:../../libDaisy/src/hid/switch.h ****     /** Specifies whether to use built-in Pull Up/Down resistors to hold button at a given state wh
  34:../../libDaisy/src/hid/switch.h ****     enum Pull
  35:../../libDaisy/src/hid/switch.h ****     {
  36:../../libDaisy/src/hid/switch.h ****         PULL_UP,   /**< & */
  37:../../libDaisy/src/hid/switch.h ****         PULL_DOWN, /**< & */
  38:../../libDaisy/src/hid/switch.h ****         PULL_NONE, /**< & */
  39:../../libDaisy/src/hid/switch.h ****     };
  40:../../libDaisy/src/hid/switch.h **** 
  41:../../libDaisy/src/hid/switch.h ****     Switch() {}
  42:../../libDaisy/src/hid/switch.h ****     ~Switch() {}
  55              		.loc 2 42 5 is_stmt 1 view -0
  56              		.cfi_startproc
  57              		@ args = 0, pretend = 0, frame = 0
  58              		@ frame_needed = 0, uses_anonymous_args = 0
  59              		@ link register save eliminated.
ARM GAS  C:\Users\Ethan\AppData\Local\Temp\ccvTTnkl.s 			page 3


  60              		.loc 2 42 16 is_stmt 0 view .LVU3
  61 0000 7047     		bx	lr
  62              		.cfi_endproc
  63              	.LFE3822:
  65              		.weak	_ZN5daisy6SwitchD1Ev
  66              		.thumb_set _ZN5daisy6SwitchD1Ev,_ZN5daisy6SwitchD2Ev
  67              		.section	.text._ZN5daisy9DaisySeedD2Ev,"axG",%progbits,_ZN5daisy9DaisySeedD5Ev,comdat
  68              		.align	1
  69              		.p2align 2,,3
  70              		.weak	_ZN5daisy9DaisySeedD2Ev
  71              		.syntax unified
  72              		.thumb
  73              		.thumb_func
  74              		.fpu fpv5-d16
  76              	_ZN5daisy9DaisySeedD2Ev:
  77              	.LVL2:
  78              	.LFB4413:
  79              		.file 3 "../../libDaisy/src/daisy_seed.h"
   1:../../libDaisy/src/daisy_seed.h **** #pragma once
   2:../../libDaisy/src/daisy_seed.h **** #ifndef DSY_SEED_H
   3:../../libDaisy/src/daisy_seed.h **** #define DSY_SEED_H
   4:../../libDaisy/src/daisy_seed.h **** 
   5:../../libDaisy/src/daisy_seed.h **** #include "daisy.h"
   6:../../libDaisy/src/daisy_seed.h **** 
   7:../../libDaisy/src/daisy_seed.h **** //Uncomment this out if you're still using the rev2 hardware
   8:../../libDaisy/src/daisy_seed.h **** //#define SEED_REV2
   9:../../libDaisy/src/daisy_seed.h **** 
  10:../../libDaisy/src/daisy_seed.h **** namespace daisy
  11:../../libDaisy/src/daisy_seed.h **** {
  12:../../libDaisy/src/daisy_seed.h **** /**
  13:../../libDaisy/src/daisy_seed.h ****    @brief This is the higher-level interface for the Daisy board. \n 
  14:../../libDaisy/src/daisy_seed.h ****     All basic peripheral configuration/initialization is setup here. \n
  15:../../libDaisy/src/daisy_seed.h **** 
  16:../../libDaisy/src/daisy_seed.h ****    @ingroup boards
  17:../../libDaisy/src/daisy_seed.h **** */
  18:../../libDaisy/src/daisy_seed.h **** class DaisySeed
  19:../../libDaisy/src/daisy_seed.h **** {
  20:../../libDaisy/src/daisy_seed.h ****   public:
  21:../../libDaisy/src/daisy_seed.h ****     DaisySeed() {}
  22:../../libDaisy/src/daisy_seed.h ****     ~DaisySeed() {}
  80              		.loc 3 22 5 is_stmt 1 view -0
  81              		.cfi_startproc
  82              		@ args = 0, pretend = 0, frame = 0
  83              		@ frame_needed = 0, uses_anonymous_args = 0
  84              		@ link register save eliminated.
  85              	.LBB90:
  86              	.LBI90:
  87              		.file 4 "../../libDaisy/src/sys/system.h"
   1:../../libDaisy/src/sys/system.h **** #ifndef DSY_SYSTEM_H
   2:../../libDaisy/src/sys/system.h **** #define DSY_SYSTEM_H
   3:../../libDaisy/src/sys/system.h **** 
   4:../../libDaisy/src/sys/system.h **** #ifndef UNIT_TEST // for unit tests, a dummy implementation is provided below
   5:../../libDaisy/src/sys/system.h **** 
   6:../../libDaisy/src/sys/system.h **** #include <cstdint>
   7:../../libDaisy/src/sys/system.h **** #include "per/tim.h"
   8:../../libDaisy/src/sys/system.h **** 
   9:../../libDaisy/src/sys/system.h **** namespace daisy
ARM GAS  C:\Users\Ethan\AppData\Local\Temp\ccvTTnkl.s 			page 4


  10:../../libDaisy/src/sys/system.h **** {
  11:../../libDaisy/src/sys/system.h **** /** A handle for interacting with the Core System. 
  12:../../libDaisy/src/sys/system.h ****  ** This includes the Clock tree, MPU, global DMA initialization,
  13:../../libDaisy/src/sys/system.h ****  ** cache handling, and any other necessary global initiailzation
  14:../../libDaisy/src/sys/system.h ****  **
  15:../../libDaisy/src/sys/system.h ****  ** @author shensley
  16:../../libDaisy/src/sys/system.h ****  ** @ingroup system
  17:../../libDaisy/src/sys/system.h ****  */
  18:../../libDaisy/src/sys/system.h **** class System
  19:../../libDaisy/src/sys/system.h **** {
  20:../../libDaisy/src/sys/system.h ****   public:
  21:../../libDaisy/src/sys/system.h ****     /** Contains settings for initializing the System */
  22:../../libDaisy/src/sys/system.h ****     struct Config
  23:../../libDaisy/src/sys/system.h ****     {
  24:../../libDaisy/src/sys/system.h ****         /** Specifies the system clock frequency that feeds APB/AHB clocks, etc. */
  25:../../libDaisy/src/sys/system.h ****         enum class SysClkFreq
  26:../../libDaisy/src/sys/system.h ****         {
  27:../../libDaisy/src/sys/system.h ****             FREQ_400MHZ,
  28:../../libDaisy/src/sys/system.h ****             FREQ_480MHZ,
  29:../../libDaisy/src/sys/system.h ****         };
  30:../../libDaisy/src/sys/system.h **** 
  31:../../libDaisy/src/sys/system.h ****         /** Method to call on the struct to set to defaults
  32:../../libDaisy/src/sys/system.h ****          ** CPU Freq set to 400MHz
  33:../../libDaisy/src/sys/system.h ****          ** Cache Enabled 
  34:../../libDaisy/src/sys/system.h ****          ** */
  35:../../libDaisy/src/sys/system.h ****         void Defaults()
  36:../../libDaisy/src/sys/system.h ****         {
  37:../../libDaisy/src/sys/system.h ****             cpu_freq    = SysClkFreq::FREQ_400MHZ;
  38:../../libDaisy/src/sys/system.h ****             use_dcache  = true;
  39:../../libDaisy/src/sys/system.h ****             use_icache  = true;
  40:../../libDaisy/src/sys/system.h ****             skip_clocks = false;
  41:../../libDaisy/src/sys/system.h ****         }
  42:../../libDaisy/src/sys/system.h **** 
  43:../../libDaisy/src/sys/system.h ****         /** Method to call on the struct to set to boost mode:
  44:../../libDaisy/src/sys/system.h ****          ** CPU Freq set to 480MHz
  45:../../libDaisy/src/sys/system.h ****          ** Cache Enabled 
  46:../../libDaisy/src/sys/system.h ****          ** */
  47:../../libDaisy/src/sys/system.h ****         void Boost()
  48:../../libDaisy/src/sys/system.h ****         {
  49:../../libDaisy/src/sys/system.h ****             cpu_freq    = SysClkFreq::FREQ_480MHZ;
  50:../../libDaisy/src/sys/system.h ****             use_dcache  = true;
  51:../../libDaisy/src/sys/system.h ****             use_icache  = true;
  52:../../libDaisy/src/sys/system.h ****             skip_clocks = false;
  53:../../libDaisy/src/sys/system.h ****         }
  54:../../libDaisy/src/sys/system.h **** 
  55:../../libDaisy/src/sys/system.h ****         SysClkFreq cpu_freq;
  56:../../libDaisy/src/sys/system.h ****         bool       use_dcache;
  57:../../libDaisy/src/sys/system.h ****         bool       use_icache;
  58:../../libDaisy/src/sys/system.h ****         bool       skip_clocks;
  59:../../libDaisy/src/sys/system.h ****     };
  60:../../libDaisy/src/sys/system.h **** 
  61:../../libDaisy/src/sys/system.h ****     /** Describes the different regions of memory available to the Daisy
  62:../../libDaisy/src/sys/system.h ****      * 
  63:../../libDaisy/src/sys/system.h ****      */
  64:../../libDaisy/src/sys/system.h ****     enum MemoryRegion
  65:../../libDaisy/src/sys/system.h ****     {
  66:../../libDaisy/src/sys/system.h ****         INTERNAL_FLASH = 0,
ARM GAS  C:\Users\Ethan\AppData\Local\Temp\ccvTTnkl.s 			page 5


  67:../../libDaisy/src/sys/system.h ****         ITCMRAM,
  68:../../libDaisy/src/sys/system.h ****         DTCMRAM,
  69:../../libDaisy/src/sys/system.h ****         SRAM_D1,
  70:../../libDaisy/src/sys/system.h ****         SRAM_D2,
  71:../../libDaisy/src/sys/system.h ****         SRAM_D3,
  72:../../libDaisy/src/sys/system.h ****         SDRAM,
  73:../../libDaisy/src/sys/system.h ****         QSPI,
  74:../../libDaisy/src/sys/system.h ****         INVALID_ADDRESS,
  75:../../libDaisy/src/sys/system.h ****     };
  76:../../libDaisy/src/sys/system.h **** 
  77:../../libDaisy/src/sys/system.h ****     System() {}
  78:../../libDaisy/src/sys/system.h ****     ~System() {}
  88              		.loc 4 78 5 view .LVU5
  89              		.loc 4 78 5 is_stmt 0 view .LVU6
  90              	.LBE90:
  91              	.LBB91:
  92              	.LBI91:
  93              		.file 5 "../../libDaisy/src/hid/usb.h"
   1:../../libDaisy/src/hid/usb.h **** #pragma once
   2:../../libDaisy/src/hid/usb.h **** #ifndef DSY_HID_USB_H
   3:../../libDaisy/src/hid/usb.h **** #define DSY_HID_USB_H
   4:../../libDaisy/src/hid/usb.h **** #include <stdint.h>
   5:../../libDaisy/src/hid/usb.h **** #include <stdlib.h>
   6:../../libDaisy/src/hid/usb.h **** 
   7:../../libDaisy/src/hid/usb.h **** namespace daisy
   8:../../libDaisy/src/hid/usb.h **** /** @addtogroup human_interface
   9:../../libDaisy/src/hid/usb.h ****     @{
  10:../../libDaisy/src/hid/usb.h **** */
  11:../../libDaisy/src/hid/usb.h **** 
  12:../../libDaisy/src/hid/usb.h **** {
  13:../../libDaisy/src/hid/usb.h **** /** 
  14:../../libDaisy/src/hid/usb.h ****     @brief Interface for initializing and using the USB Peripherals on the daisy
  15:../../libDaisy/src/hid/usb.h ****     @author Stephen Hensley
  16:../../libDaisy/src/hid/usb.h ****     @date December 2019
  17:../../libDaisy/src/hid/usb.h **** */
  18:../../libDaisy/src/hid/usb.h **** class UsbHandle
  19:../../libDaisy/src/hid/usb.h **** {
  20:../../libDaisy/src/hid/usb.h ****   public:
  21:../../libDaisy/src/hid/usb.h ****     /** Return values for USBHandle Functions */
  22:../../libDaisy/src/hid/usb.h ****     enum class Result
  23:../../libDaisy/src/hid/usb.h ****     {
  24:../../libDaisy/src/hid/usb.h ****         OK,
  25:../../libDaisy/src/hid/usb.h ****         ERR,
  26:../../libDaisy/src/hid/usb.h ****     };
  27:../../libDaisy/src/hid/usb.h **** 
  28:../../libDaisy/src/hid/usb.h ****     /** Specified which of the two USB Peripherals to initialize. */
  29:../../libDaisy/src/hid/usb.h ****     enum UsbPeriph
  30:../../libDaisy/src/hid/usb.h ****     {
  31:../../libDaisy/src/hid/usb.h ****         FS_INTERNAL, /**< Internal pin */
  32:../../libDaisy/src/hid/usb.h ****         FS_EXTERNAL, /**< FS External D+ pin is Pin 38 (GPIO32). FS External D- pin is Pin 37 (GPIO
  33:../../libDaisy/src/hid/usb.h ****         FS_BOTH,     /**< Both */
  34:../../libDaisy/src/hid/usb.h ****     };
  35:../../libDaisy/src/hid/usb.h **** 
  36:../../libDaisy/src/hid/usb.h **** 
  37:../../libDaisy/src/hid/usb.h ****     /** Function called upon reception of a buffer */
  38:../../libDaisy/src/hid/usb.h ****     typedef void (*ReceiveCallback)(uint8_t* buff, uint32_t* len);
  39:../../libDaisy/src/hid/usb.h **** 
ARM GAS  C:\Users\Ethan\AppData\Local\Temp\ccvTTnkl.s 			page 6


  40:../../libDaisy/src/hid/usb.h ****     UsbHandle() {}
  41:../../libDaisy/src/hid/usb.h **** 
  42:../../libDaisy/src/hid/usb.h ****     ~UsbHandle() {}
  94              		.loc 5 42 5 is_stmt 1 view .LVU7
  95              		.loc 5 42 5 is_stmt 0 view .LVU8
  96              	.LBE91:
  97              	.LBB92:
  98              	.LBI92:
  99              		.file 6 "../../libDaisy/src/per/adc.h"
   1:../../libDaisy/src/per/adc.h **** #pragma once
   2:../../libDaisy/src/per/adc.h **** #ifndef DSY_ADC_H
   3:../../libDaisy/src/per/adc.h **** #define DSY_ADC_H /**< Macro */
   4:../../libDaisy/src/per/adc.h **** #include <stdint.h>
   5:../../libDaisy/src/per/adc.h **** #include <stdlib.h>
   6:../../libDaisy/src/per/adc.h **** #include "daisy_core.h"
   7:../../libDaisy/src/per/adc.h **** #include "per/gpio.h"
   8:../../libDaisy/src/per/adc.h **** 
   9:../../libDaisy/src/per/adc.h **** #define DSY_ADC_MAX_CHANNELS 16 /**< Maximum number of ADC channels */
  10:../../libDaisy/src/per/adc.h **** 
  11:../../libDaisy/src/per/adc.h **** namespace daisy
  12:../../libDaisy/src/per/adc.h **** {
  13:../../libDaisy/src/per/adc.h **** /** @addtogroup per_analog
  14:../../libDaisy/src/per/adc.h ****     @{
  15:../../libDaisy/src/per/adc.h **** */
  16:../../libDaisy/src/per/adc.h **** 
  17:../../libDaisy/src/per/adc.h **** /* While there may not be many configuration options here,
  18:../../libDaisy/src/per/adc.h **** using a struct like this allows us to add more configuration
  19:../../libDaisy/src/per/adc.h **** later without breaking existing functionality.
  20:../../libDaisy/src/per/adc.h **** */
  21:../../libDaisy/src/per/adc.h **** 
  22:../../libDaisy/src/per/adc.h **** /** @brief   Configuration Structure for an ADC Channel 
  23:../../libDaisy/src/per/adc.h ****  *  @details This can be used to configure a a single input, 
  24:../../libDaisy/src/per/adc.h ****  *           or a multiplexed input, allowing up to 8 inputs on 
  25:../../libDaisy/src/per/adc.h ****  *           one channel.
  26:../../libDaisy/src/per/adc.h ****  *  @note    Sharing data lines to multiple muxes _is_ possible, but
  27:../../libDaisy/src/per/adc.h ****  *           each channel sharing data lines must be set to the maximum
  28:../../libDaisy/src/per/adc.h ****  *           number of channels, even if some multiplexers have fewer
  29:../../libDaisy/src/per/adc.h ****  *           inputs connected.
  30:../../libDaisy/src/per/adc.h **** */
  31:../../libDaisy/src/per/adc.h **** struct AdcChannelConfig
  32:../../libDaisy/src/per/adc.h **** {
  33:../../libDaisy/src/per/adc.h ****     /** Which pin to use for multiplexing */
  34:../../libDaisy/src/per/adc.h ****     enum MuxPin
  35:../../libDaisy/src/per/adc.h ****     {
  36:../../libDaisy/src/per/adc.h ****         MUX_SEL_0,    /**< & */
  37:../../libDaisy/src/per/adc.h ****         MUX_SEL_1,    /**< & */
  38:../../libDaisy/src/per/adc.h ****         MUX_SEL_2,    /**< & */
  39:../../libDaisy/src/per/adc.h ****         MUX_SEL_LAST, /**< & */
  40:../../libDaisy/src/per/adc.h ****     };
  41:../../libDaisy/src/per/adc.h **** 
  42:../../libDaisy/src/per/adc.h ****     /** Initializes a single ADC pin as an ADC. 
  43:../../libDaisy/src/per/adc.h ****     \param pin Pin to init.
  44:../../libDaisy/src/per/adc.h ****      */
  45:../../libDaisy/src/per/adc.h ****     void InitSingle(dsy_gpio_pin pin);
  46:../../libDaisy/src/per/adc.h **** 
  47:../../libDaisy/src/per/adc.h ****     /** 
  48:../../libDaisy/src/per/adc.h ****     Initializes a single ADC pin as a Multiplexed ADC.
ARM GAS  C:\Users\Ethan\AppData\Local\Temp\ccvTTnkl.s 			page 7


  49:../../libDaisy/src/per/adc.h ****     Requires a CD405X Multiplexer connected to the pin.
  50:../../libDaisy/src/per/adc.h ****     You only need to supply the mux pins that are required,
  51:../../libDaisy/src/per/adc.h ****     e.g. a 4052 mux would only require mux_0 and mux_1.
  52:../../libDaisy/src/per/adc.h ****     Internal Callbacks handle the pin addressing.
  53:../../libDaisy/src/per/adc.h ****     \param mux_channels must be 1-8
  54:../../libDaisy/src/per/adc.h ****     \param mux_0 First mux pin
  55:../../libDaisy/src/per/adc.h ****     \param mux_1 Second mux pin
  56:../../libDaisy/src/per/adc.h ****     \param mux_2 Third mux pin
  57:../../libDaisy/src/per/adc.h ****     \param adc_pin &
  58:../../libDaisy/src/per/adc.h ****     */
  59:../../libDaisy/src/per/adc.h ****     void InitMux(dsy_gpio_pin adc_pin,
  60:../../libDaisy/src/per/adc.h ****                  size_t       mux_channels,
  61:../../libDaisy/src/per/adc.h ****                  dsy_gpio_pin mux_0,
  62:../../libDaisy/src/per/adc.h ****                  dsy_gpio_pin mux_1 = {DSY_GPIOX, 0},
  63:../../libDaisy/src/per/adc.h ****                  dsy_gpio_pin mux_2 = {DSY_GPIOX, 0});
  64:../../libDaisy/src/per/adc.h **** 
  65:../../libDaisy/src/per/adc.h ****     dsy_gpio pin_;                   /**< & */
  66:../../libDaisy/src/per/adc.h ****     dsy_gpio mux_pin_[MUX_SEL_LAST]; /**< & */
  67:../../libDaisy/src/per/adc.h ****     uint8_t  mux_channels_;          /**< & */
  68:../../libDaisy/src/per/adc.h **** };
  69:../../libDaisy/src/per/adc.h **** 
  70:../../libDaisy/src/per/adc.h **** /**
  71:../../libDaisy/src/per/adc.h ****    @brief Handler for analog to digital conversion
  72:../../libDaisy/src/per/adc.h **** */
  73:../../libDaisy/src/per/adc.h **** class AdcHandle
  74:../../libDaisy/src/per/adc.h **** {
  75:../../libDaisy/src/per/adc.h ****   public:
  76:../../libDaisy/src/per/adc.h ****     /** Supported oversampling amounts */
  77:../../libDaisy/src/per/adc.h ****     enum OverSampling
  78:../../libDaisy/src/per/adc.h ****     {
  79:../../libDaisy/src/per/adc.h ****         OVS_NONE, /**< & */
  80:../../libDaisy/src/per/adc.h ****         OVS_4,    /**< & */
  81:../../libDaisy/src/per/adc.h ****         OVS_8,    /**< & */
  82:../../libDaisy/src/per/adc.h ****         OVS_16,   /**< & */
  83:../../libDaisy/src/per/adc.h ****         OVS_32,   /**< & */
  84:../../libDaisy/src/per/adc.h ****         OVS_64,   /**< & */
  85:../../libDaisy/src/per/adc.h ****         OVS_128,  /**< & */
  86:../../libDaisy/src/per/adc.h ****         OVS_256,  /**< & */
  87:../../libDaisy/src/per/adc.h ****         OVS_512,  /**< & */
  88:../../libDaisy/src/per/adc.h ****         OVS_1024, /**< & */
  89:../../libDaisy/src/per/adc.h ****         OVS_LAST, /**< & */
  90:../../libDaisy/src/per/adc.h ****     };
  91:../../libDaisy/src/per/adc.h **** 
  92:../../libDaisy/src/per/adc.h ****     AdcHandle() {}
  93:../../libDaisy/src/per/adc.h ****     ~AdcHandle() {}
 100              		.loc 6 93 5 is_stmt 1 view .LVU9
 101              		.loc 6 93 5 is_stmt 0 view .LVU10
 102              	.LBE92:
 103              	.LBB93:
 104              	.LBI93:
 105              		.file 7 "../../libDaisy/src/hid/audio.h"
   1:../../libDaisy/src/hid/audio.h **** #ifndef DSY_AUDIO_H
   2:../../libDaisy/src/hid/audio.h **** #define DSY_AUDIO_H /**< & */
   3:../../libDaisy/src/hid/audio.h **** 
   4:../../libDaisy/src/hid/audio.h **** #include "per/sai.h"
   5:../../libDaisy/src/hid/audio.h **** 
   6:../../libDaisy/src/hid/audio.h **** namespace daisy
ARM GAS  C:\Users\Ethan\AppData\Local\Temp\ccvTTnkl.s 			page 8


   7:../../libDaisy/src/hid/audio.h **** {
   8:../../libDaisy/src/hid/audio.h **** /** @brief Audio Engine Handle
   9:../../libDaisy/src/hid/audio.h ****  *  @ingroup audio 
  10:../../libDaisy/src/hid/audio.h ****  *  @details This class allows for higher level access to an audio engine.
  11:../../libDaisy/src/hid/audio.h ****  *           If you're using a SOM like the DaisySeed or DaisyPatchSM (or any 
  12:../../libDaisy/src/hid/audio.h ****  *            board that includes one of those objects) then the intialization
  13:../../libDaisy/src/hid/audio.h ****  *            is already taken  care of.
  14:../../libDaisy/src/hid/audio.h ****  *           If you're setting up your own custom hardware, or need to make changes
  15:../../libDaisy/src/hid/audio.h ****  *           you will have to take the following steps:
  16:../../libDaisy/src/hid/audio.h ****  *             1. Create and Initialize an SaiHandle or two depending on your requirements
  17:../../libDaisy/src/hid/audio.h ****  *             2. Initialize the Audio Handle with the desired settings and the Initialized SaiHand
  18:../../libDaisy/src/hid/audio.h ****  *             3. If the connected codec requires special configuration or initialization, do so
  19:../../libDaisy/src/hid/audio.h ****  *             4. Write a callback method using either the AudioCallback or the InterleavingAudioCa
  20:../../libDaisy/src/hid/audio.h ****  *             5. Start the Audio using one of the StartAudio function
  21:../../libDaisy/src/hid/audio.h ****  */
  22:../../libDaisy/src/hid/audio.h **** class AudioHandle
  23:../../libDaisy/src/hid/audio.h **** {
  24:../../libDaisy/src/hid/audio.h ****   public:
  25:../../libDaisy/src/hid/audio.h ****     /** Manually configurable details about the Audio Engine */
  26:../../libDaisy/src/hid/audio.h ****     /** TODO: Figure out how to get samplerate in here. */
  27:../../libDaisy/src/hid/audio.h ****     struct Config
  28:../../libDaisy/src/hid/audio.h ****     {
  29:../../libDaisy/src/hid/audio.h ****         size_t                        blocksize;
  30:../../libDaisy/src/hid/audio.h ****         SaiHandle::Config::SampleRate samplerate;
  31:../../libDaisy/src/hid/audio.h ****         float                         postgain;
  32:../../libDaisy/src/hid/audio.h ****     };
  33:../../libDaisy/src/hid/audio.h **** 
  34:../../libDaisy/src/hid/audio.h ****     enum class Result
  35:../../libDaisy/src/hid/audio.h ****     {
  36:../../libDaisy/src/hid/audio.h ****         OK,
  37:../../libDaisy/src/hid/audio.h ****         ERR,
  38:../../libDaisy/src/hid/audio.h ****     };
  39:../../libDaisy/src/hid/audio.h **** 
  40:../../libDaisy/src/hid/audio.h ****     /** Non-Interleaving input buffer
  41:../../libDaisy/src/hid/audio.h ****      * Buffer arranged by float[chn][sample] 
  42:../../libDaisy/src/hid/audio.h ****      * const so that the user can't modify the input
  43:../../libDaisy/src/hid/audio.h ****      */
  44:../../libDaisy/src/hid/audio.h ****     typedef const float* const* InputBuffer;
  45:../../libDaisy/src/hid/audio.h **** 
  46:../../libDaisy/src/hid/audio.h ****     /** Non-Interleaving output buffer
  47:../../libDaisy/src/hid/audio.h ****      * Arranged by float[chn][sample] 
  48:../../libDaisy/src/hid/audio.h ****      */
  49:../../libDaisy/src/hid/audio.h ****     typedef float** OutputBuffer;
  50:../../libDaisy/src/hid/audio.h **** 
  51:../../libDaisy/src/hid/audio.h ****     /** Type for a Non-Interleaving audio callback 
  52:../../libDaisy/src/hid/audio.h ****      * Non-Interleaving audio callbacks in daisy will be of this type
  53:../../libDaisy/src/hid/audio.h ****      */
  54:../../libDaisy/src/hid/audio.h ****     typedef void (*AudioCallback)(InputBuffer  in,
  55:../../libDaisy/src/hid/audio.h ****                                   OutputBuffer out,
  56:../../libDaisy/src/hid/audio.h ****                                   size_t       size);
  57:../../libDaisy/src/hid/audio.h **** 
  58:../../libDaisy/src/hid/audio.h ****     /** Interleaving Input buffer
  59:../../libDaisy/src/hid/audio.h ****      ** audio is prepared as { L0, R0, L1, R1, . . . LN, RN }]
  60:../../libDaisy/src/hid/audio.h ****      ** this is const, as the user shouldn't modify it
  61:../../libDaisy/src/hid/audio.h ****     */
  62:../../libDaisy/src/hid/audio.h ****     typedef const float* InterleavingInputBuffer;
  63:../../libDaisy/src/hid/audio.h **** 
ARM GAS  C:\Users\Ethan\AppData\Local\Temp\ccvTTnkl.s 			page 9


  64:../../libDaisy/src/hid/audio.h ****     /** Interleaving Output buffer 
  65:../../libDaisy/src/hid/audio.h ****      ** audio is prepared as { L0, R0, L1, R1, . . . LN, RN }
  66:../../libDaisy/src/hid/audio.h ****     */
  67:../../libDaisy/src/hid/audio.h ****     typedef float* InterleavingOutputBuffer;
  68:../../libDaisy/src/hid/audio.h **** 
  69:../../libDaisy/src/hid/audio.h ****     /** Interleaving Audio Callback 
  70:../../libDaisy/src/hid/audio.h ****      * Interleaving audio callbacks in daisy must be of this type
  71:../../libDaisy/src/hid/audio.h ****      */
  72:../../libDaisy/src/hid/audio.h ****     typedef void (*InterleavingAudioCallback)(InterleavingInputBuffer  in,
  73:../../libDaisy/src/hid/audio.h ****                                               InterleavingOutputBuffer out,
  74:../../libDaisy/src/hid/audio.h ****                                               size_t                   size);
  75:../../libDaisy/src/hid/audio.h **** 
  76:../../libDaisy/src/hid/audio.h ****     AudioHandle() : pimpl_(nullptr) {}
  77:../../libDaisy/src/hid/audio.h ****     ~AudioHandle() {}
 106              		.loc 7 77 5 is_stmt 1 view .LVU11
 107              		.loc 7 77 5 is_stmt 0 view .LVU12
 108              	.LBE93:
 109              		.loc 3 22 19 view .LVU13
 110 0000 7047     		bx	lr
 111              		.cfi_endproc
 112              	.LFE4413:
 114              		.weak	_ZN5daisy9DaisySeedD1Ev
 115              		.thumb_set _ZN5daisy9DaisySeedD1Ev,_ZN5daisy9DaisySeedD2Ev
 116 0002 00BF     		.section	.text._ZL13AudioCallbackPKfPfj,"ax",%progbits
 117              		.align	1
 118              		.p2align 2,,3
 119              		.syntax unified
 120              		.thumb
 121              		.thumb_func
 122              		.fpu fpv5-d16
 124              	_ZL13AudioCallbackPKfPfj:
 125              	.LVL3:
 126              	.LFB4418:
 127              		.file 8 "Testbed.cpp"
   1:Testbed.cpp   **** #include "daisysp.h"
   2:Testbed.cpp   **** #include "daisy_seed.h"
   3:Testbed.cpp   **** 
   4:Testbed.cpp   **** using namespace daisysp;
   5:Testbed.cpp   **** using namespace daisy;
   6:Testbed.cpp   **** 
   7:Testbed.cpp   **** static DaisySeed  hw;
   8:Testbed.cpp   **** static Oscillator osc;
   9:Testbed.cpp   **** Switch button1;
  10:Testbed.cpp   **** 
  11:Testbed.cpp   **** int wf1 = 0;
  12:Testbed.cpp   **** 
  13:Testbed.cpp   **** static void AudioCallback(AudioHandle::InterleavingInputBuffer  in,
  14:Testbed.cpp   ****                           AudioHandle::InterleavingOutputBuffer out,
  15:Testbed.cpp   ****                           size_t                                size)
  16:Testbed.cpp   **** {
 128              		.loc 8 16 1 is_stmt 1 view -0
 129              		.cfi_startproc
 130              		@ args = 0, pretend = 0, frame = 0
 131              		@ frame_needed = 0, uses_anonymous_args = 0
  17:Testbed.cpp   ****     float sig;
 132              		.loc 8 17 5 view .LVU15
  18:Testbed.cpp   **** 
ARM GAS  C:\Users\Ethan\AppData\Local\Temp\ccvTTnkl.s 			page 10


  19:Testbed.cpp   ****     for(size_t i = 0; i < size; i += 2)
 133              		.loc 8 19 5 view .LVU16
 134              	.LBB94:
 135              		.loc 8 19 25 view .LVU17
 136 0000 002A     		cmp	r2, #0
 137 0002 64D0     		beq	.L23
 138 0004 013A     		subs	r2, r2, #1
 139              	.LVL4:
 140              		.loc 8 19 25 is_stmt 0 view .LVU18
 141              	.LBE94:
  16:Testbed.cpp   ****     float sig;
 142              		.loc 8 16 1 view .LVU19
 143 0006 2DE9F843 		push	{r3, r4, r5, r6, r7, r8, r9, lr}
 144              		.cfi_def_cfa_offset 32
 145              		.cfi_offset 3, -32
 146              		.cfi_offset 4, -28
 147              		.cfi_offset 5, -24
 148              		.cfi_offset 6, -20
 149              		.cfi_offset 7, -16
 150              		.cfi_offset 8, -12
 151              		.cfi_offset 9, -8
 152              		.cfi_offset 14, -4
 153 000a 0C46     		mov	r4, r1
 154              	.LBB123:
 155              		.loc 8 19 25 view .LVU20
 156 000c 0025     		movs	r5, #0
 157 000e 304E     		ldr	r6, .L26
 158 0010 5708     		lsrs	r7, r2, #1
 159 0012 DFF8CC80 		ldr	r8, .L26+16
 160 0016 DFF8D090 		ldr	r9, .L26+24
 161              	.LVL5:
 162              	.L18:
 163              	.LBB95:
  20:Testbed.cpp   ****     {
  21:Testbed.cpp   ****         float knob = hw.adc.GetFloat(0);
 164              		.loc 8 21 9 is_stmt 1 view .LVU21
 165              		.loc 8 21 37 is_stmt 0 view .LVU22
 166 001a 0021     		movs	r1, #0
 167 001c 2D48     		ldr	r0, .L26+4
 168 001e FFF7FEFF 		bl	_ZNK5daisy9AdcHandle8GetFloatEh
 169              	.LVL6:
  22:Testbed.cpp   ****         osc.SetFreq((knob * 440.0f)+220.0f);
 170              		.loc 8 22 9 is_stmt 1 view .LVU23
 171              		.loc 8 22 20 is_stmt 0 view .LVU24
 172 0022 9FED2D7A 		vldr.32	s14, .L26+8
 173 0026 DFED2D7A 		vldr.32	s15, .L26+12
 174              	.LBB96:
 175              	.LBB97:
  17:../../DaisySP/Source/Synthesis/oscillator.h ****     /** Choices for output waveforms, POLYBLEP are appropriately labeled. Others are naive forms.
  18:../../DaisySP/Source/Synthesis/oscillator.h ****     */
  19:../../DaisySP/Source/Synthesis/oscillator.h ****     enum
  20:../../DaisySP/Source/Synthesis/oscillator.h ****     {
  21:../../DaisySP/Source/Synthesis/oscillator.h ****         WAVE_SIN,
  22:../../DaisySP/Source/Synthesis/oscillator.h ****         WAVE_TRI,
  23:../../DaisySP/Source/Synthesis/oscillator.h ****         WAVE_SAW,
  24:../../DaisySP/Source/Synthesis/oscillator.h ****         WAVE_RAMP,
  25:../../DaisySP/Source/Synthesis/oscillator.h ****         WAVE_SQUARE,
ARM GAS  C:\Users\Ethan\AppData\Local\Temp\ccvTTnkl.s 			page 11


  26:../../DaisySP/Source/Synthesis/oscillator.h ****         WAVE_POLYBLEP_TRI,
  27:../../DaisySP/Source/Synthesis/oscillator.h ****         WAVE_POLYBLEP_SAW,
  28:../../DaisySP/Source/Synthesis/oscillator.h ****         WAVE_POLYBLEP_SQUARE,
  29:../../DaisySP/Source/Synthesis/oscillator.h ****         WAVE_LAST,
  30:../../DaisySP/Source/Synthesis/oscillator.h ****     };
  31:../../DaisySP/Source/Synthesis/oscillator.h **** 
  32:../../DaisySP/Source/Synthesis/oscillator.h **** 
  33:../../DaisySP/Source/Synthesis/oscillator.h ****     /** Initializes the Oscillator
  34:../../DaisySP/Source/Synthesis/oscillator.h **** 
  35:../../DaisySP/Source/Synthesis/oscillator.h ****         \param sample_rate - sample rate of the audio engine being run, and the frequency that the 
  36:../../DaisySP/Source/Synthesis/oscillator.h **** 
  37:../../DaisySP/Source/Synthesis/oscillator.h ****         Defaults:
  38:../../DaisySP/Source/Synthesis/oscillator.h ****         - freq_ = 100 Hz
  39:../../DaisySP/Source/Synthesis/oscillator.h ****         - amp_ = 0.5
  40:../../DaisySP/Source/Synthesis/oscillator.h ****         - waveform_ = sine wave.
  41:../../DaisySP/Source/Synthesis/oscillator.h ****     */
  42:../../DaisySP/Source/Synthesis/oscillator.h ****     void Init(float sample_rate)
  43:../../DaisySP/Source/Synthesis/oscillator.h ****     {
  44:../../DaisySP/Source/Synthesis/oscillator.h ****         sr_        = sample_rate;
  45:../../DaisySP/Source/Synthesis/oscillator.h ****         sr_recip_  = 1.0f / sample_rate;
  46:../../DaisySP/Source/Synthesis/oscillator.h ****         freq_      = 100.0f;
  47:../../DaisySP/Source/Synthesis/oscillator.h ****         amp_       = 0.5f;
  48:../../DaisySP/Source/Synthesis/oscillator.h ****         phase_     = 0.0f;
  49:../../DaisySP/Source/Synthesis/oscillator.h ****         phase_inc_ = CalcPhaseInc(freq_);
  50:../../DaisySP/Source/Synthesis/oscillator.h ****         waveform_  = WAVE_SIN;
  51:../../DaisySP/Source/Synthesis/oscillator.h ****         eoc_       = true;
  52:../../DaisySP/Source/Synthesis/oscillator.h ****         eor_       = true;
  53:../../DaisySP/Source/Synthesis/oscillator.h ****     }
  54:../../DaisySP/Source/Synthesis/oscillator.h **** 
  55:../../DaisySP/Source/Synthesis/oscillator.h **** 
  56:../../DaisySP/Source/Synthesis/oscillator.h ****     /** Changes the frequency of the Oscillator, and recalculates phase increment.
  57:../../DaisySP/Source/Synthesis/oscillator.h ****     */
  58:../../DaisySP/Source/Synthesis/oscillator.h ****     inline void SetFreq(const float f)
  59:../../DaisySP/Source/Synthesis/oscillator.h ****     {
  60:../../DaisySP/Source/Synthesis/oscillator.h ****         freq_      = f;
  61:../../DaisySP/Source/Synthesis/oscillator.h ****         phase_inc_ = CalcPhaseInc(f);
 176              		.loc 1 61 34 view .LVU25
 177 002a 2948     		ldr	r0, .L26
 178              	.LBE97:
 179              	.LBE96:
 180              		.loc 8 22 20 view .LVU26
 181 002c E0EE077A 		vfma.f32	s15, s0, s14
 182              	.LVL7:
 183              	.LBB100:
 184              	.LBI96:
  58:../../DaisySP/Source/Synthesis/oscillator.h ****     {
 185              		.loc 1 58 17 is_stmt 1 view .LVU27
 186              	.LBB98:
  60:../../DaisySP/Source/Synthesis/oscillator.h ****         phase_inc_ = CalcPhaseInc(f);
 187              		.loc 1 60 9 view .LVU28
 188              		.loc 1 61 34 is_stmt 0 view .LVU29
 189 0030 B0EE670A 		vmov.f32	s0, s15
 190              	.LVL8:
  60:../../DaisySP/Source/Synthesis/oscillator.h ****         phase_inc_ = CalcPhaseInc(f);
 191              		.loc 1 60 20 view .LVU30
 192 0034 C6ED027A 		vstr.32	s15, [r6, #8]
 193              		.loc 1 61 9 is_stmt 1 view .LVU31
ARM GAS  C:\Users\Ethan\AppData\Local\Temp\ccvTTnkl.s 			page 12


 194              		.loc 1 61 34 is_stmt 0 view .LVU32
 195 0038 FFF7FEFF 		bl	_ZN7daisysp10Oscillator12CalcPhaseIncEf
 196              	.LVL9:
 197              		.loc 1 61 34 view .LVU33
 198              	.LBE98:
 199              	.LBE100:
  23:Testbed.cpp   **** 
  24:Testbed.cpp   ****         button1.Debounce();
 200              		.loc 8 24 25 view .LVU34
 201 003c 2848     		ldr	r0, .L26+16
 202              	.LBB101:
 203              	.LBB99:
 204              		.loc 1 61 20 view .LVU35
 205 003e 86ED060A 		vstr.32	s0, [r6, #24]
 206              	.LVL10:
 207              		.loc 1 61 20 view .LVU36
 208              	.LBE99:
 209              	.LBE101:
 210              		.loc 8 24 9 is_stmt 1 view .LVU37
 211              		.loc 8 24 25 is_stmt 0 view .LVU38
 212 0042 FFF7FEFF 		bl	_ZN5daisy6Switch8DebounceEv
 213              	.LVL11:
  25:Testbed.cpp   ****         //osc.SetAmp(button1.Pressed());
  26:Testbed.cpp   ****         if(button1.FallingEdge()){
 214              		.loc 8 26 9 is_stmt 1 view .LVU39
 215              	.LBB102:
 216              	.LBI102:
  43:../../libDaisy/src/hid/switch.h **** 
  44:../../libDaisy/src/hid/switch.h ****     /** 
  45:../../libDaisy/src/hid/switch.h ****     Initializes the switch object with a given port/pin combo.
  46:../../libDaisy/src/hid/switch.h ****     \param pin port/pin object to tell the switch which hardware pin to use.
  47:../../libDaisy/src/hid/switch.h ****     \param update_rate Does nothing. Backwards compatibility until next breaking update.
  48:../../libDaisy/src/hid/switch.h ****     \param t switch type -- Default: TYPE_MOMENTARY
  49:../../libDaisy/src/hid/switch.h ****     \param pol switch polarity -- Default: POLARITY_INVERTED
  50:../../libDaisy/src/hid/switch.h ****     \param pu switch pull up/down -- Default: PULL_UP
  51:../../libDaisy/src/hid/switch.h ****     */
  52:../../libDaisy/src/hid/switch.h ****     void
  53:../../libDaisy/src/hid/switch.h ****     Init(dsy_gpio_pin pin, float update_rate, Type t, Polarity pol, Pull pu);
  54:../../libDaisy/src/hid/switch.h **** 
  55:../../libDaisy/src/hid/switch.h ****     /**
  56:../../libDaisy/src/hid/switch.h ****        Simplified Init.
  57:../../libDaisy/src/hid/switch.h ****        \param pin port/pin object to tell the switch which hardware pin to use.
  58:../../libDaisy/src/hid/switch.h ****        \param update_rate Left for backwards compatibility until next breaking change.
  59:../../libDaisy/src/hid/switch.h ****     */
  60:../../libDaisy/src/hid/switch.h ****     void Init(dsy_gpio_pin pin, float update_rate = 0.f);
  61:../../libDaisy/src/hid/switch.h **** 
  62:../../libDaisy/src/hid/switch.h ****     /** 
  63:../../libDaisy/src/hid/switch.h ****     Called at update_rate to debounce and handle timing for the switch.
  64:../../libDaisy/src/hid/switch.h ****     In order for events not to be missed, its important that the Edge/Pressed checks
  65:../../libDaisy/src/hid/switch.h ****     be made at the same rate as the debounce function is being called.
  66:../../libDaisy/src/hid/switch.h ****     */
  67:../../libDaisy/src/hid/switch.h ****     void Debounce();
  68:../../libDaisy/src/hid/switch.h **** 
  69:../../libDaisy/src/hid/switch.h ****     /** \return true if a button was just pressed. */
  70:../../libDaisy/src/hid/switch.h ****     inline bool RisingEdge() const { return updated_ ? state_ == 0x7f : false; }
  71:../../libDaisy/src/hid/switch.h **** 
  72:../../libDaisy/src/hid/switch.h ****     /** \return true if the button was just released */
ARM GAS  C:\Users\Ethan\AppData\Local\Temp\ccvTTnkl.s 			page 13


  73:../../libDaisy/src/hid/switch.h ****     inline bool FallingEdge() const
 217              		.loc 2 73 17 view .LVU40
 218              	.LBB103:
  74:../../libDaisy/src/hid/switch.h ****     {
  75:../../libDaisy/src/hid/switch.h ****         return updated_ ? state_ == 0x80 : false;
 219              		.loc 2 75 9 view .LVU41
 220              		.loc 2 75 25 is_stmt 0 view .LVU42
 221 0046 98F80430 		ldrb	r3, [r8, #4]	@ zero_extendqisi2
 222 004a 002B     		cmp	r3, #0
 223 004c 3AD0     		beq	.L7
 224              	.LVL12:
 225              		.loc 2 75 25 view .LVU43
 226              	.LBE103:
 227              	.LBE102:
 228              		.loc 8 26 9 view .LVU44
 229 004e 98F80A30 		ldrb	r3, [r8, #10]	@ zero_extendqisi2
 230 0052 802B     		cmp	r3, #128
 231 0054 36D1     		bne	.L7
  27:Testbed.cpp   ****             if(wf1 < 3){
 232              		.loc 8 27 13 is_stmt 1 view .LVU45
 233              		.loc 8 27 20 is_stmt 0 view .LVU46
 234 0056 D9F80030 		ldr	r3, [r9]
 235              		.loc 8 27 13 view .LVU47
 236 005a 022B     		cmp	r3, #2
 237 005c 1BDC     		bgt	.L10
  28:Testbed.cpp   ****                 wf1++;
 238              		.loc 8 28 17 is_stmt 1 view .LVU48
 239              		.loc 8 28 20 is_stmt 0 view .LVU49
 240 005e 0133     		adds	r3, r3, #1
 241 0060 C9F80030 		str	r3, [r9]
 242              	.L9:
  29:Testbed.cpp   ****             }else{
  30:Testbed.cpp   ****                 wf1 = 0;
  31:Testbed.cpp   ****             }
  32:Testbed.cpp   ****         }
  33:Testbed.cpp   **** 
  34:Testbed.cpp   ****         switch(wf1){
 243              		.loc 8 34 9 is_stmt 1 view .LVU50
 244 0064 032B     		cmp	r3, #3
 245 0066 08D8     		bhi	.L12
 246 0068 DFE803F0 		tbb	[pc, r3]
 247              	.L14:
 248 006c 18       		.byte	(.L11-.L14)/2
 249 006d 25       		.byte	(.L16-.L14)/2
 250 006e 1E       		.byte	(.L15-.L14)/2
 251 006f 02       		.byte	(.L13-.L14)/2
 252              		.p2align 1
 253              	.L13:
  35:Testbed.cpp   ****             case 0:
  36:Testbed.cpp   ****                 osc.SetWaveform(osc.WAVE_SIN);
  37:Testbed.cpp   ****                 hw.SetLed(false);
  38:Testbed.cpp   ****                 break;
  39:Testbed.cpp   ****             case 1:
  40:Testbed.cpp   ****                 osc.SetWaveform(osc.WAVE_SAW);
  41:Testbed.cpp   ****                 hw.SetLed(true);
  42:Testbed.cpp   ****                 break;
  43:Testbed.cpp   ****             case 2:
ARM GAS  C:\Users\Ethan\AppData\Local\Temp\ccvTTnkl.s 			page 14


  44:Testbed.cpp   ****                 osc.SetWaveform(osc.WAVE_SQUARE);
  45:Testbed.cpp   ****                 hw.SetLed(false);
  46:Testbed.cpp   ****                 break;
  47:Testbed.cpp   ****             case 3:
 254              		.loc 8 47 13 view .LVU51
  48:Testbed.cpp   ****                 osc.SetWaveform(osc.WAVE_TRI);
 255              		.loc 8 48 17 view .LVU52
 256              	.LVL13:
 257              	.LBB104:
 258              	.LBI104:
  62:../../DaisySP/Source/Synthesis/oscillator.h ****     }
  63:../../DaisySP/Source/Synthesis/oscillator.h **** 
  64:../../DaisySP/Source/Synthesis/oscillator.h **** 
  65:../../DaisySP/Source/Synthesis/oscillator.h ****     /** Sets the amplitude of the waveform.
  66:../../DaisySP/Source/Synthesis/oscillator.h ****     */
  67:../../DaisySP/Source/Synthesis/oscillator.h ****     inline void SetAmp(const float a) { amp_ = a; }
  68:../../DaisySP/Source/Synthesis/oscillator.h ****     /** Sets the waveform to be synthesized by the Process() function.
  69:../../DaisySP/Source/Synthesis/oscillator.h ****     */
  70:../../DaisySP/Source/Synthesis/oscillator.h ****     inline void SetWaveform(const uint8_t wf)
 259              		.loc 1 70 17 view .LVU53
 260              	.LBB105:
  71:../../DaisySP/Source/Synthesis/oscillator.h ****     {
  72:../../DaisySP/Source/Synthesis/oscillator.h ****         waveform_ = wf < WAVE_LAST ? wf : WAVE_SIN;
 261              		.loc 1 72 9 view .LVU54
 262              		.loc 1 72 19 is_stmt 0 view .LVU55
 263 0070 0121     		movs	r1, #1
 264              	.LBE105:
 265              	.LBE104:
  49:Testbed.cpp   ****                 hw.SetLed(true);
 266              		.loc 8 49 26 view .LVU56
 267 0072 1C48     		ldr	r0, .L26+20
 268              	.LBB107:
 269              	.LBB106:
 270              		.loc 1 72 19 view .LVU57
 271 0074 3170     		strb	r1, [r6]
 272              	.LVL14:
 273              		.loc 1 72 19 view .LVU58
 274              	.LBE106:
 275              	.LBE107:
 276              		.loc 8 49 17 is_stmt 1 view .LVU59
 277              		.loc 8 49 26 is_stmt 0 view .LVU60
 278 0076 FFF7FEFF 		bl	_ZN5daisy9DaisySeed6SetLedEb
 279              	.LVL15:
  50:Testbed.cpp   ****                 break;
 280              		.loc 8 50 17 is_stmt 1 view .LVU61
 281              	.L12:
  51:Testbed.cpp   ****         }
  52:Testbed.cpp   ****         sig = osc.Process();
 282              		.loc 8 52 9 discriminator 2 view .LVU62
 283              		.loc 8 52 26 is_stmt 0 discriminator 2 view .LVU63
 284 007a 1548     		ldr	r0, .L26
 285              	.LBE95:
  19:Testbed.cpp   ****     {
 286              		.loc 8 19 25 discriminator 2 view .LVU64
 287 007c 0834     		adds	r4, r4, #8
 288              	.LBB120:
 289              		.loc 8 52 26 discriminator 2 view .LVU65
ARM GAS  C:\Users\Ethan\AppData\Local\Temp\ccvTTnkl.s 			page 15


 290 007e FFF7FEFF 		bl	_ZN7daisysp10Oscillator7ProcessEv
 291              	.LVL16:
 292              	.LBE120:
  19:Testbed.cpp   ****     {
 293              		.loc 8 19 25 discriminator 2 view .LVU66
 294 0082 BD42     		cmp	r5, r7
 295 0084 05F10103 		add	r3, r5, #1
 296              	.LVL17:
 297              	.LBB121:
  53:Testbed.cpp   **** 
  54:Testbed.cpp   ****         // left out
  55:Testbed.cpp   ****         out[i] = sig;
 298              		.loc 8 55 9 is_stmt 1 discriminator 2 view .LVU67
 299              		.loc 8 55 16 is_stmt 0 discriminator 2 view .LVU68
 300 0088 04ED020A 		vstr.32	s0, [r4, #-8]
  56:Testbed.cpp   **** 
  57:Testbed.cpp   ****         // right out
  58:Testbed.cpp   ****         out[i + 1] = sig;
 301              		.loc 8 58 9 is_stmt 1 discriminator 2 view .LVU69
 302              		.loc 8 58 20 is_stmt 0 discriminator 2 view .LVU70
 303 008c 04ED010A 		vstr.32	s0, [r4, #-4]
 304              	.LBE121:
  19:Testbed.cpp   ****     {
 305              		.loc 8 19 5 is_stmt 1 discriminator 2 view .LVU71
 306              	.LVL18:
  19:Testbed.cpp   ****     {
 307              		.loc 8 19 25 discriminator 2 view .LVU72
 308 0090 1BD0     		beq	.L5
 309 0092 1D46     		mov	r5, r3
 310              	.LVL19:
  19:Testbed.cpp   ****     {
 311              		.loc 8 19 25 is_stmt 0 discriminator 2 view .LVU73
 312 0094 C1E7     		b	.L18
 313              	.LVL20:
 314              	.L10:
 315              	.LBB122:
  30:Testbed.cpp   ****             }
 316              		.loc 8 30 17 is_stmt 1 view .LVU74
  30:Testbed.cpp   ****             }
 317              		.loc 8 30 21 is_stmt 0 view .LVU75
 318 0096 0023     		movs	r3, #0
 319 0098 C9F80030 		str	r3, [r9]
  34:Testbed.cpp   ****             case 0:
 320              		.loc 8 34 9 is_stmt 1 view .LVU76
 321              	.L11:
  35:Testbed.cpp   ****                 osc.SetWaveform(osc.WAVE_SIN);
 322              		.loc 8 35 13 view .LVU77
  36:Testbed.cpp   ****                 hw.SetLed(false);
 323              		.loc 8 36 17 view .LVU78
 324              	.LVL21:
 325              	.LBB108:
 326              	.LBI108:
  70:../../DaisySP/Source/Synthesis/oscillator.h ****     {
 327              		.loc 1 70 17 view .LVU79
 328              	.LBB109:
 329              		.loc 1 72 9 view .LVU80
 330              		.loc 1 72 19 is_stmt 0 view .LVU81
ARM GAS  C:\Users\Ethan\AppData\Local\Temp\ccvTTnkl.s 			page 16


 331 009c 0021     		movs	r1, #0
 332              	.LBE109:
 333              	.LBE108:
  37:Testbed.cpp   ****                 break;
 334              		.loc 8 37 26 view .LVU82
 335 009e 1148     		ldr	r0, .L26+20
 336              	.LBB111:
 337              	.LBB110:
 338              		.loc 1 72 19 view .LVU83
 339 00a0 3170     		strb	r1, [r6]
 340              	.LVL22:
 341              		.loc 1 72 19 view .LVU84
 342              	.LBE110:
 343              	.LBE111:
  37:Testbed.cpp   ****                 break;
 344              		.loc 8 37 17 is_stmt 1 view .LVU85
  37:Testbed.cpp   ****                 break;
 345              		.loc 8 37 26 is_stmt 0 view .LVU86
 346 00a2 FFF7FEFF 		bl	_ZN5daisy9DaisySeed6SetLedEb
 347              	.LVL23:
  38:Testbed.cpp   ****             case 1:
 348              		.loc 8 38 17 is_stmt 1 view .LVU87
 349 00a6 E8E7     		b	.L12
 350              	.L15:
  43:Testbed.cpp   ****                 osc.SetWaveform(osc.WAVE_SQUARE);
 351              		.loc 8 43 13 view .LVU88
  44:Testbed.cpp   ****                 hw.SetLed(false);
 352              		.loc 8 44 17 view .LVU89
 353              	.LVL24:
 354              	.LBB112:
 355              	.LBI112:
  70:../../DaisySP/Source/Synthesis/oscillator.h ****     {
 356              		.loc 1 70 17 view .LVU90
 357              	.LBB113:
 358              		.loc 1 72 9 view .LVU91
 359              		.loc 1 72 19 is_stmt 0 view .LVU92
 360 00a8 0423     		movs	r3, #4
 361              	.LBE113:
 362              	.LBE112:
  45:Testbed.cpp   ****                 break;
 363              		.loc 8 45 26 view .LVU93
 364 00aa 0021     		movs	r1, #0
 365 00ac 0D48     		ldr	r0, .L26+20
 366              	.LBB115:
 367              	.LBB114:
 368              		.loc 1 72 19 view .LVU94
 369 00ae 3370     		strb	r3, [r6]
 370              	.LVL25:
 371              		.loc 1 72 19 view .LVU95
 372              	.LBE114:
 373              	.LBE115:
  45:Testbed.cpp   ****                 break;
 374              		.loc 8 45 17 is_stmt 1 view .LVU96
  45:Testbed.cpp   ****                 break;
 375              		.loc 8 45 26 is_stmt 0 view .LVU97
 376 00b0 FFF7FEFF 		bl	_ZN5daisy9DaisySeed6SetLedEb
 377              	.LVL26:
ARM GAS  C:\Users\Ethan\AppData\Local\Temp\ccvTTnkl.s 			page 17


  46:Testbed.cpp   ****             case 3:
 378              		.loc 8 46 17 is_stmt 1 view .LVU98
 379 00b4 E1E7     		b	.L12
 380              	.L16:
  39:Testbed.cpp   ****                 osc.SetWaveform(osc.WAVE_SAW);
 381              		.loc 8 39 13 view .LVU99
  40:Testbed.cpp   ****                 hw.SetLed(true);
 382              		.loc 8 40 17 view .LVU100
 383              	.LVL27:
 384              	.LBB116:
 385              	.LBI116:
  70:../../DaisySP/Source/Synthesis/oscillator.h ****     {
 386              		.loc 1 70 17 view .LVU101
 387              	.LBB117:
 388              		.loc 1 72 9 view .LVU102
 389              		.loc 1 72 19 is_stmt 0 view .LVU103
 390 00b6 0223     		movs	r3, #2
 391              	.LBE117:
 392              	.LBE116:
  41:Testbed.cpp   ****                 break;
 393              		.loc 8 41 26 view .LVU104
 394 00b8 0121     		movs	r1, #1
 395 00ba 0A48     		ldr	r0, .L26+20
 396              	.LBB119:
 397              	.LBB118:
 398              		.loc 1 72 19 view .LVU105
 399 00bc 3370     		strb	r3, [r6]
 400              	.LVL28:
 401              		.loc 1 72 19 view .LVU106
 402              	.LBE118:
 403              	.LBE119:
  41:Testbed.cpp   ****                 break;
 404              		.loc 8 41 17 is_stmt 1 view .LVU107
  41:Testbed.cpp   ****                 break;
 405              		.loc 8 41 26 is_stmt 0 view .LVU108
 406 00be FFF7FEFF 		bl	_ZN5daisy9DaisySeed6SetLedEb
 407              	.LVL29:
  42:Testbed.cpp   ****             case 2:
 408              		.loc 8 42 17 is_stmt 1 view .LVU109
 409 00c2 DAE7     		b	.L12
 410              	.L7:
  34:Testbed.cpp   ****             case 0:
 411              		.loc 8 34 9 is_stmt 0 view .LVU110
 412 00c4 D9F80030 		ldr	r3, [r9]
 413 00c8 CCE7     		b	.L9
 414              	.LVL30:
 415              	.L5:
  34:Testbed.cpp   ****             case 0:
 416              		.loc 8 34 9 view .LVU111
 417              	.LBE122:
 418              	.LBE123:
  59:Testbed.cpp   ****     }
  60:Testbed.cpp   **** }
 419              		.loc 8 60 1 view .LVU112
 420 00ca BDE8F883 		pop	{r3, r4, r5, r6, r7, r8, r9, pc}
 421              	.LVL31:
 422              	.L23:
ARM GAS  C:\Users\Ethan\AppData\Local\Temp\ccvTTnkl.s 			page 18


 423              		.cfi_def_cfa_offset 0
 424              		.cfi_restore 3
 425              		.cfi_restore 4
 426              		.cfi_restore 5
 427              		.cfi_restore 6
 428              		.cfi_restore 7
 429              		.cfi_restore 8
 430              		.cfi_restore 9
 431              		.cfi_restore 14
 432              		.loc 8 60 1 view .LVU113
 433 00ce 7047     		bx	lr
 434              	.L27:
 435              		.align	2
 436              	.L26:
 437 00d0 00000000 		.word	.LANCHOR1
 438 00d4 18000000 		.word	.LANCHOR0+24
 439 00d8 0000DC43 		.word	1138491392
 440 00dc 00005C43 		.word	1130102784
 441 00e0 00000000 		.word	.LANCHOR2
 442 00e4 00000000 		.word	.LANCHOR0
 443 00e8 00000000 		.word	.LANCHOR3
 444              		.cfi_endproc
 445              	.LFE4418:
 447              		.section	.text.startup.main,"ax",%progbits
 448              		.align	1
 449              		.p2align 2,,3
 450              		.global	main
 451              		.syntax unified
 452              		.thumb
 453              		.thumb_func
 454              		.fpu fpv5-d16
 456              	main:
 457              	.LFB4419:
  61:Testbed.cpp   **** 
  62:Testbed.cpp   **** int main(void)
  63:Testbed.cpp   **** {
 458              		.loc 8 63 1 is_stmt 1 view -0
 459              		.cfi_startproc
 460              		@ args = 0, pretend = 0, frame = 32
 461              		@ frame_needed = 0, uses_anonymous_args = 0
  64:Testbed.cpp   ****     // initialize seed hardware and oscillator daisysp module
  65:Testbed.cpp   ****     float sample_rate;
 462              		.loc 8 65 5 view .LVU115
  66:Testbed.cpp   ****     hw.Configure();
 463              		.loc 8 66 5 view .LVU116
  63:Testbed.cpp   ****     // initialize seed hardware and oscillator daisysp module
 464              		.loc 8 63 1 is_stmt 0 view .LVU117
 465 0000 30B5     		push	{r4, r5, lr}
 466              		.cfi_def_cfa_offset 12
 467              		.cfi_offset 4, -12
 468              		.cfi_offset 5, -8
 469              		.cfi_offset 14, -4
 470              		.loc 8 66 17 view .LVU118
 471 0002 3048     		ldr	r0, .L31
  63:Testbed.cpp   ****     // initialize seed hardware and oscillator daisysp module
 472              		.loc 8 63 1 view .LVU119
 473 0004 89B0     		sub	sp, sp, #36
ARM GAS  C:\Users\Ethan\AppData\Local\Temp\ccvTTnkl.s 			page 19


 474              		.cfi_def_cfa_offset 48
 475              		.loc 8 66 17 view .LVU120
 476 0006 FFF7FEFF 		bl	_ZN5daisy9DaisySeed9ConfigureEv
 477              	.LVL32:
  67:Testbed.cpp   ****     hw.Init();
 478              		.loc 8 67 5 is_stmt 1 view .LVU121
 479              		.loc 8 67 12 is_stmt 0 view .LVU122
 480 000a 0021     		movs	r1, #0
 481 000c 2D48     		ldr	r0, .L31
 482              	.LBB132:
 483              	.LBB133:
  50:../../DaisySP/Source/Synthesis/oscillator.h ****         eoc_       = true;
 484              		.loc 1 50 20 view .LVU123
 485 000e 0D46     		mov	r5, r1
 486              	.LBE133:
 487              	.LBE132:
 488              		.loc 8 67 12 view .LVU124
 489 0010 FFF7FEFF 		bl	_ZN5daisy9DaisySeed4InitEb
 490              	.LVL33:
  68:Testbed.cpp   ****     hw.SetAudioBlockSize(4);
 491              		.loc 8 68 5 is_stmt 1 view .LVU125
 492              		.loc 8 68 25 is_stmt 0 view .LVU126
 493 0014 0421     		movs	r1, #4
 494 0016 2B48     		ldr	r0, .L31
 495 0018 FFF7FEFF 		bl	_ZN5daisy9DaisySeed17SetAudioBlockSizeEj
 496              	.LVL34:
  69:Testbed.cpp   ****     sample_rate = hw.AudioSampleRate();
 497              		.loc 8 69 5 is_stmt 1 view .LVU127
 498              		.loc 8 69 37 is_stmt 0 view .LVU128
 499 001c 2948     		ldr	r0, .L31
 500 001e FFF7FEFF 		bl	_ZN5daisy9DaisySeed15AudioSampleRateEv
 501              	.LVL35:
 502              	.LBB138:
 503              	.LBB134:
  45:../../DaisySP/Source/Synthesis/oscillator.h ****         freq_      = 100.0f;
 504              		.loc 1 45 27 view .LVU129
 505 0022 B7EE006A 		vmov.f32	s12, #1.0e+0
 506              	.LBE134:
 507              	.LBE138:
 508              		.loc 8 69 37 view .LVU130
 509 0026 F0EE407A 		vmov.f32	s15, s0
 510              	.LVL36:
  70:Testbed.cpp   ****     osc.Init(sample_rate);
 511              		.loc 8 70 5 is_stmt 1 view .LVU131
 512              	.LBB139:
 513              	.LBI132:
  42:../../DaisySP/Source/Synthesis/oscillator.h ****     {
 514              		.loc 1 42 10 view .LVU132
 515              	.LBB135:
  44:../../DaisySP/Source/Synthesis/oscillator.h ****         sr_recip_  = 1.0f / sample_rate;
 516              		.loc 1 44 9 view .LVU133
  44:../../DaisySP/Source/Synthesis/oscillator.h ****         sr_recip_  = 1.0f / sample_rate;
 517              		.loc 1 44 20 is_stmt 0 view .LVU134
 518 002a 274C     		ldr	r4, .L31+4
  46:../../DaisySP/Source/Synthesis/oscillator.h ****         amp_       = 0.5f;
 519              		.loc 1 46 20 view .LVU135
 520 002c 9FED277A 		vldr.32	s14, .L31+8
ARM GAS  C:\Users\Ethan\AppData\Local\Temp\ccvTTnkl.s 			page 20


  47:../../DaisySP/Source/Synthesis/oscillator.h ****         phase_     = 0.0f;
 521              		.loc 1 47 20 view .LVU136
 522 0030 4FF07C52 		mov	r2, #1056964608
  48:../../DaisySP/Source/Synthesis/oscillator.h ****         phase_inc_ = CalcPhaseInc(freq_);
 523              		.loc 1 48 20 view .LVU137
 524 0034 0023     		movs	r3, #0
  49:../../DaisySP/Source/Synthesis/oscillator.h ****         waveform_  = WAVE_SIN;
 525              		.loc 1 49 34 view .LVU138
 526 0036 2046     		mov	r0, r4
  45:../../DaisySP/Source/Synthesis/oscillator.h ****         freq_      = 100.0f;
 527              		.loc 1 45 27 view .LVU139
 528 0038 C6EE276A 		vdiv.f32	s13, s12, s15
  44:../../DaisySP/Source/Synthesis/oscillator.h ****         sr_recip_  = 1.0f / sample_rate;
 529              		.loc 1 44 20 view .LVU140
 530 003c C4ED037A 		vstr.32	s15, [r4, #12]
  45:../../DaisySP/Source/Synthesis/oscillator.h ****         freq_      = 100.0f;
 531              		.loc 1 45 9 is_stmt 1 view .LVU141
  46:../../DaisySP/Source/Synthesis/oscillator.h ****         amp_       = 0.5f;
 532              		.loc 1 46 20 is_stmt 0 view .LVU142
 533 0040 84ED027A 		vstr.32	s14, [r4, #8]
  47:../../DaisySP/Source/Synthesis/oscillator.h ****         phase_     = 0.0f;
 534              		.loc 1 47 20 view .LVU143
 535 0044 6260     		str	r2, [r4, #4]	@ float
  48:../../DaisySP/Source/Synthesis/oscillator.h ****         phase_inc_ = CalcPhaseInc(freq_);
 536              		.loc 1 48 20 view .LVU144
 537 0046 6361     		str	r3, [r4, #20]	@ float
  49:../../DaisySP/Source/Synthesis/oscillator.h ****         waveform_  = WAVE_SIN;
 538              		.loc 1 49 34 view .LVU145
 539 0048 B0EE470A 		vmov.f32	s0, s14
 540              	.LVL37:
  45:../../DaisySP/Source/Synthesis/oscillator.h ****         freq_      = 100.0f;
 541              		.loc 1 45 20 view .LVU146
 542 004c C4ED046A 		vstr.32	s13, [r4, #16]
  46:../../DaisySP/Source/Synthesis/oscillator.h ****         amp_       = 0.5f;
 543              		.loc 1 46 9 is_stmt 1 view .LVU147
  47:../../DaisySP/Source/Synthesis/oscillator.h ****         phase_     = 0.0f;
 544              		.loc 1 47 9 view .LVU148
  48:../../DaisySP/Source/Synthesis/oscillator.h ****         phase_inc_ = CalcPhaseInc(freq_);
 545              		.loc 1 48 9 view .LVU149
  49:../../DaisySP/Source/Synthesis/oscillator.h ****         waveform_  = WAVE_SIN;
 546              		.loc 1 49 9 view .LVU150
  49:../../DaisySP/Source/Synthesis/oscillator.h ****         waveform_  = WAVE_SIN;
 547              		.loc 1 49 34 is_stmt 0 view .LVU151
 548 0050 FFF7FEFF 		bl	_ZN7daisysp10Oscillator12CalcPhaseIncEf
 549              	.LVL38:
  52:../../DaisySP/Source/Synthesis/oscillator.h ****     }
 550              		.loc 1 52 20 view .LVU152
 551 0054 40F20113 		movw	r3, #257
 552              	.LBE135:
 553              	.LBE139:
  71:Testbed.cpp   **** 
  72:Testbed.cpp   ****     //knob
  73:Testbed.cpp   ****     AdcChannelConfig adcConfig;
  74:Testbed.cpp   ****     adcConfig.InitSingle(hw.GetPin(21));
 554              		.loc 8 74 25 view .LVU153
 555 0058 1520     		movs	r0, #21
 556              	.LBB140:
ARM GAS  C:\Users\Ethan\AppData\Local\Temp\ccvTTnkl.s 			page 21


 557              	.LBB136:
  49:../../DaisySP/Source/Synthesis/oscillator.h ****         waveform_  = WAVE_SIN;
 558              		.loc 1 49 20 view .LVU154
 559 005a 84ED060A 		vstr.32	s0, [r4, #24]
  50:../../DaisySP/Source/Synthesis/oscillator.h ****         eoc_       = true;
 560              		.loc 1 50 9 is_stmt 1 view .LVU155
  51:../../DaisySP/Source/Synthesis/oscillator.h ****         eor_       = true;
 561              		.loc 1 51 9 view .LVU156
  52:../../DaisySP/Source/Synthesis/oscillator.h ****     }
 562              		.loc 1 52 9 view .LVU157
  52:../../DaisySP/Source/Synthesis/oscillator.h ****     }
 563              		.loc 1 52 20 is_stmt 0 view .LVU158
 564 005e A384     		strh	r3, [r4, #36]	@ movhi
 565              	.LVL39:
  52:../../DaisySP/Source/Synthesis/oscillator.h ****     }
 566              		.loc 1 52 20 view .LVU159
 567              	.LBE136:
 568              	.LBE140:
  73:Testbed.cpp   ****     adcConfig.InitSingle(hw.GetPin(21));
 569              		.loc 8 73 5 is_stmt 1 view .LVU160
 570              		.loc 8 74 5 view .LVU161
 571              	.LBB141:
 572              	.LBB137:
  50:../../DaisySP/Source/Synthesis/oscillator.h ****         eoc_       = true;
 573              		.loc 1 50 20 is_stmt 0 view .LVU162
 574 0060 2570     		strb	r5, [r4]
 575              	.LBE137:
 576              	.LBE141:
 577              		.loc 8 74 25 view .LVU163
 578 0062 FFF7FEFF 		bl	_ZN5daisy9DaisySeed6GetPinEh
 579              	.LVL40:
 580 0066 0346     		mov	r3, r0	@ movhi
 581 0068 03A8     		add	r0, sp, #12
 582 006a ADF80430 		strh	r3, [sp, #4]	@ movhi
 583 006e 0199     		ldr	r1, [sp, #4]
 584 0070 FFF7FEFF 		bl	_ZN5daisy16AdcChannelConfig10InitSingleE12dsy_gpio_pin
 585              	.LVL41:
  75:Testbed.cpp   ****     hw.adc.Init(&adcConfig, 1);
 586              		.loc 8 75 5 is_stmt 1 view .LVU164
 587              		.loc 8 75 16 is_stmt 0 view .LVU165
 588 0074 0122     		movs	r2, #1
 589 0076 0423     		movs	r3, #4
 590 0078 03A9     		add	r1, sp, #12
 591 007a 1548     		ldr	r0, .L31+12
 592 007c FFF7FEFF 		bl	_ZN5daisy9AdcHandle4InitEPNS_16AdcChannelConfigEjNS0_12OverSamplingE
 593              	.LVL42:
  76:Testbed.cpp   **** 
  77:Testbed.cpp   ****     //button
  78:Testbed.cpp   ****     button1.Init(hw.GetPin(28),1000);
 594              		.loc 8 78 5 is_stmt 1 view .LVU166
 595              		.loc 8 78 17 is_stmt 0 view .LVU167
 596 0080 1C20     		movs	r0, #28
 597 0082 FFF7FEFF 		bl	_ZN5daisy9DaisySeed6GetPinEh
 598              	.LVL43:
 599 0086 0346     		mov	r3, r0	@ movhi
 600 0088 9FED120A 		vldr.32	s0, .L31+16
 601 008c ADF80830 		strh	r3, [sp, #8]	@ movhi
ARM GAS  C:\Users\Ethan\AppData\Local\Temp\ccvTTnkl.s 			page 22


 602 0090 0299     		ldr	r1, [sp, #8]
 603 0092 1148     		ldr	r0, .L31+20
 604 0094 FFF7FEFF 		bl	_ZN5daisy6Switch4InitE12dsy_gpio_pinf
 605              	.LVL44:
  79:Testbed.cpp   **** 
  80:Testbed.cpp   ****     // Set parameters for oscillator
  81:Testbed.cpp   ****     osc.SetWaveform(osc.WAVE_SIN);
 606              		.loc 8 81 5 is_stmt 1 view .LVU168
 607              	.LBB142:
 608              	.LBI142:
  70:../../DaisySP/Source/Synthesis/oscillator.h ****     {
 609              		.loc 1 70 17 view .LVU169
 610              	.LBB143:
 611              		.loc 1 72 9 view .LVU170
 612              	.LBE143:
 613              	.LBE142:
 614              	.LBB145:
 615              	.LBB146:
  60:../../DaisySP/Source/Synthesis/oscillator.h ****         phase_inc_ = CalcPhaseInc(f);
 616              		.loc 1 60 20 is_stmt 0 view .LVU171
 617 0098 9FED100A 		vldr.32	s0, .L31+24
  61:../../DaisySP/Source/Synthesis/oscillator.h ****     }
 618              		.loc 1 61 34 view .LVU172
 619 009c 2046     		mov	r0, r4
 620              	.LBE146:
 621              	.LBE145:
 622              	.LBB149:
 623              	.LBB144:
 624              		.loc 1 72 19 view .LVU173
 625 009e 2570     		strb	r5, [r4]
 626              	.LVL45:
 627              		.loc 1 72 19 view .LVU174
 628              	.LBE144:
 629              	.LBE149:
  82:Testbed.cpp   ****     osc.SetFreq(880);
 630              		.loc 8 82 5 is_stmt 1 view .LVU175
 631              	.LBB150:
 632              	.LBI145:
  58:../../DaisySP/Source/Synthesis/oscillator.h ****     {
 633              		.loc 1 58 17 view .LVU176
 634              	.LBB147:
  60:../../DaisySP/Source/Synthesis/oscillator.h ****         phase_inc_ = CalcPhaseInc(f);
 635              		.loc 1 60 9 view .LVU177
  60:../../DaisySP/Source/Synthesis/oscillator.h ****         phase_inc_ = CalcPhaseInc(f);
 636              		.loc 1 60 20 is_stmt 0 view .LVU178
 637 00a0 84ED020A 		vstr.32	s0, [r4, #8]
  61:../../DaisySP/Source/Synthesis/oscillator.h ****     }
 638              		.loc 1 61 9 is_stmt 1 view .LVU179
  61:../../DaisySP/Source/Synthesis/oscillator.h ****     }
 639              		.loc 1 61 34 is_stmt 0 view .LVU180
 640 00a4 FFF7FEFF 		bl	_ZN7daisysp10Oscillator12CalcPhaseIncEf
 641              	.LVL46:
 642              	.LBE147:
 643              	.LBE150:
 644              	.LBB151:
 645              	.LBB152:
  67:../../DaisySP/Source/Synthesis/oscillator.h ****     /** Sets the waveform to be synthesized by the Process() function.
ARM GAS  C:\Users\Ethan\AppData\Local\Temp\ccvTTnkl.s 			page 23


 646              		.loc 1 67 46 view .LVU181
 647 00a8 4FF07A53 		mov	r3, #1048576000
 648              	.LBE152:
 649              	.LBE151:
  83:Testbed.cpp   ****     osc.SetAmp(0.25);
  84:Testbed.cpp   **** 
  85:Testbed.cpp   **** 
  86:Testbed.cpp   ****     // start callback
  87:Testbed.cpp   ****     hw.adc.Start();
 650              		.loc 8 87 17 view .LVU182
 651 00ac 0848     		ldr	r0, .L31+12
 652              	.LBB154:
 653              	.LBB148:
  61:../../DaisySP/Source/Synthesis/oscillator.h ****     }
 654              		.loc 1 61 20 view .LVU183
 655 00ae 84ED060A 		vstr.32	s0, [r4, #24]
 656              	.LVL47:
  61:../../DaisySP/Source/Synthesis/oscillator.h ****     }
 657              		.loc 1 61 20 view .LVU184
 658              	.LBE148:
 659              	.LBE154:
  83:Testbed.cpp   ****     osc.SetAmp(0.25);
 660              		.loc 8 83 5 is_stmt 1 view .LVU185
 661              	.LBB155:
 662              	.LBI151:
  67:../../DaisySP/Source/Synthesis/oscillator.h ****     /** Sets the waveform to be synthesized by the Process() function.
 663              		.loc 1 67 17 view .LVU186
 664              	.LBB153:
  67:../../DaisySP/Source/Synthesis/oscillator.h ****     /** Sets the waveform to be synthesized by the Process() function.
 665              		.loc 1 67 41 view .LVU187
  67:../../DaisySP/Source/Synthesis/oscillator.h ****     /** Sets the waveform to be synthesized by the Process() function.
 666              		.loc 1 67 46 is_stmt 0 view .LVU188
 667 00b2 6360     		str	r3, [r4, #4]	@ float
 668              	.LVL48:
  67:../../DaisySP/Source/Synthesis/oscillator.h ****     /** Sets the waveform to be synthesized by the Process() function.
 669              		.loc 1 67 46 view .LVU189
 670              	.LBE153:
 671              	.LBE155:
 672              		.loc 8 87 5 is_stmt 1 view .LVU190
 673              		.loc 8 87 17 is_stmt 0 view .LVU191
 674 00b4 FFF7FEFF 		bl	_ZN5daisy9AdcHandle5StartEv
 675              	.LVL49:
  88:Testbed.cpp   ****     hw.StartAudio(AudioCallback);
 676              		.loc 8 88 5 is_stmt 1 view .LVU192
 677              		.loc 8 88 18 is_stmt 0 view .LVU193
 678 00b8 0949     		ldr	r1, .L31+28
 679 00ba 0248     		ldr	r0, .L31
 680 00bc FFF7FEFF 		bl	_ZN5daisy9DaisySeed10StartAudioEPFvPKfPfjE
 681              	.LVL50:
 682              	.L29:
  89:Testbed.cpp   **** 
  90:Testbed.cpp   **** 
  91:Testbed.cpp   ****     while(1) {}
 683              		.loc 8 91 5 is_stmt 1 discriminator 1 view .LVU194
 684              		.loc 8 91 5 discriminator 1 view .LVU195
 685              		.loc 8 91 5 discriminator 1 view .LVU196
 686              		.loc 8 91 5 discriminator 1 view .LVU197
ARM GAS  C:\Users\Ethan\AppData\Local\Temp\ccvTTnkl.s 			page 24


 687 00c0 FEE7     		b	.L29
 688              	.L32:
 689 00c2 00BF     		.align	2
 690              	.L31:
 691 00c4 00000000 		.word	.LANCHOR0
 692 00c8 00000000 		.word	.LANCHOR1
 693 00cc 0000C842 		.word	1120403456
 694 00d0 18000000 		.word	.LANCHOR0+24
 695 00d4 00007A44 		.word	1148846080
 696 00d8 00000000 		.word	.LANCHOR2
 697 00dc 00005C44 		.word	1146880000
 698 00e0 00000000 		.word	_ZL13AudioCallbackPKfPfj
 699              		.cfi_endproc
 700              	.LFE4419:
 702              		.section	.text.startup._GLOBAL__sub_I_button1,"ax",%progbits
 703              		.align	1
 704              		.p2align 2,,3
 705              		.syntax unified
 706              		.thumb
 707              		.thumb_func
 708              		.fpu fpv5-d16
 710              	_GLOBAL__sub_I_button1:
 711              	.LFB4979:
  92:Testbed.cpp   **** }
 712              		.loc 8 92 1 view -0
 713              		.cfi_startproc
 714              		@ args = 0, pretend = 0, frame = 0
 715              		@ frame_needed = 0, uses_anonymous_args = 0
 716              	.LBB178:
 717              	.LBI178:
 718              		.loc 8 92 1 view .LVU199
 719              	.LVL51:
 720              	.LBB179:
 721              	.LBB180:
 722              	.LBI180:
  21:../../libDaisy/src/daisy_seed.h ****     ~DaisySeed() {}
 723              		.loc 3 21 5 view .LVU200
 724              	.LBB181:
 725              	.LBB182:
 726              	.LBI182:
 727              		.file 9 "../../libDaisy/src/per/qspi.h"
   1:../../libDaisy/src/per/qspi.h **** #ifndef DSY_QSPI
   2:../../libDaisy/src/per/qspi.h **** #define DSY_QSPI /**< Macro */
   3:../../libDaisy/src/per/qspi.h **** 
   4:../../libDaisy/src/per/qspi.h **** #ifndef UNIT_TEST // for unit tests, a dummy implementation
   5:../../libDaisy/src/per/qspi.h **** 
   6:../../libDaisy/src/per/qspi.h **** #include <cstdint>
   7:../../libDaisy/src/per/qspi.h **** #include "daisy_core.h" // Added for dsy_gpio_pin typedef
   8:../../libDaisy/src/per/qspi.h **** 
   9:../../libDaisy/src/per/qspi.h **** #define DSY_QSPI_TEXT       \
  10:../../libDaisy/src/per/qspi.h ****     __attribute__((section( \
  11:../../libDaisy/src/per/qspi.h ****         ".qspiflash_text"))) /**< used for reading memory in memory_mapped mode. */
  12:../../libDaisy/src/per/qspi.h **** #define DSY_QSPI_DATA       \
  13:../../libDaisy/src/per/qspi.h ****     __attribute__((section( \
  14:../../libDaisy/src/per/qspi.h ****         ".qspiflash_data"))) /**< used for reading memory in memory_mapped mode. */
  15:../../libDaisy/src/per/qspi.h **** #define DSY_QSPI_BSS        \
  16:../../libDaisy/src/per/qspi.h ****     __attribute__((section( \
ARM GAS  C:\Users\Ethan\AppData\Local\Temp\ccvTTnkl.s 			page 25


  17:../../libDaisy/src/per/qspi.h ****         ".qspiflash_bss"))) /**< used for reading memory in memory_mapped mode. */
  18:../../libDaisy/src/per/qspi.h **** 
  19:../../libDaisy/src/per/qspi.h **** namespace daisy
  20:../../libDaisy/src/per/qspi.h **** {
  21:../../libDaisy/src/per/qspi.h **** /** @addtogroup serial
  22:../../libDaisy/src/per/qspi.h **** @{
  23:../../libDaisy/src/per/qspi.h **** */
  24:../../libDaisy/src/per/qspi.h **** 
  25:../../libDaisy/src/per/qspi.h **** /** 
  26:../../libDaisy/src/per/qspi.h ****  Driver for QSPI peripheral to interface with external flash memory. \n 
  27:../../libDaisy/src/per/qspi.h ****     Currently supported QSPI Devices: \n 
  28:../../libDaisy/src/per/qspi.h ****     * IS25LP080D
  29:../../libDaisy/src/per/qspi.h **** */
  30:../../libDaisy/src/per/qspi.h **** class QSPIHandle
  31:../../libDaisy/src/per/qspi.h **** {
  32:../../libDaisy/src/per/qspi.h ****   public:
  33:../../libDaisy/src/per/qspi.h ****     enum Result
  34:../../libDaisy/src/per/qspi.h ****     {
  35:../../libDaisy/src/per/qspi.h ****         OK = 0,
  36:../../libDaisy/src/per/qspi.h ****         ERR
  37:../../libDaisy/src/per/qspi.h ****     };
  38:../../libDaisy/src/per/qspi.h **** 
  39:../../libDaisy/src/per/qspi.h ****     /** Indicates the current status of the module. 
  40:../../libDaisy/src/per/qspi.h ****          *  Warnings are indicated by a leading W.
  41:../../libDaisy/src/per/qspi.h ****          *  Errors are indicated by a leading E and cause an immediate exit.
  42:../../libDaisy/src/per/qspi.h ****          * 
  43:../../libDaisy/src/per/qspi.h ****          *  \param GOOD - No errors have been reported.
  44:../../libDaisy/src/per/qspi.h ****          *  \param E_HAL_ERROR - HAL code did not return HAL_OK.
  45:../../libDaisy/src/per/qspi.h ****          *  \param E_SWITCHING_MODES - An error was encountered while switching QSPI peripheral mod
  46:../../libDaisy/src/per/qspi.h ****          *  \param E_INVALID_MODE - QSPI should not be written to while the program is executing fr
  47:../../libDaisy/src/per/qspi.h ****          */
  48:../../libDaisy/src/per/qspi.h ****     enum Status
  49:../../libDaisy/src/per/qspi.h ****     {
  50:../../libDaisy/src/per/qspi.h ****         GOOD = 0,
  51:../../libDaisy/src/per/qspi.h ****         E_HAL_ERROR,
  52:../../libDaisy/src/per/qspi.h ****         E_SWITCHING_MODES,
  53:../../libDaisy/src/per/qspi.h ****         E_INVALID_MODE,
  54:../../libDaisy/src/per/qspi.h ****     };
  55:../../libDaisy/src/per/qspi.h **** 
  56:../../libDaisy/src/per/qspi.h ****     /** Configuration structure for interfacing with QSPI Driver */
  57:../../libDaisy/src/per/qspi.h ****     struct Config
  58:../../libDaisy/src/per/qspi.h ****     {
  59:../../libDaisy/src/per/qspi.h ****         /** Flash Devices supported. (Both of these are more-or-less the same, just different sizes
  60:../../libDaisy/src/per/qspi.h ****         enum Device
  61:../../libDaisy/src/per/qspi.h ****         {
  62:../../libDaisy/src/per/qspi.h ****             IS25LP080D,  /**< & */
  63:../../libDaisy/src/per/qspi.h ****             IS25LP064A,  /**< & */
  64:../../libDaisy/src/per/qspi.h ****             DEVICE_LAST, /**< & */
  65:../../libDaisy/src/per/qspi.h ****         };
  66:../../libDaisy/src/per/qspi.h **** 
  67:../../libDaisy/src/per/qspi.h ****         /** 
  68:../../libDaisy/src/per/qspi.h ****         Modes of operation.
  69:../../libDaisy/src/per/qspi.h ****         Memory Mapped mode: QSPI configured so that the QSPI can be
  70:../../libDaisy/src/per/qspi.h ****         read from starting address 0x90000000. Writing is not
  71:../../libDaisy/src/per/qspi.h ****         possible in this mode. \n 
  72:../../libDaisy/src/per/qspi.h ****         Indirect Polling mode: Device driver enabled. 
  73:../../libDaisy/src/per/qspi.h ****         */
ARM GAS  C:\Users\Ethan\AppData\Local\Temp\ccvTTnkl.s 			page 26


  74:../../libDaisy/src/per/qspi.h ****         enum Mode
  75:../../libDaisy/src/per/qspi.h ****         {
  76:../../libDaisy/src/per/qspi.h ****             MEMORY_MAPPED,    /**< & */
  77:../../libDaisy/src/per/qspi.h ****             INDIRECT_POLLING, /**< & */
  78:../../libDaisy/src/per/qspi.h ****             MODE_LAST,
  79:../../libDaisy/src/per/qspi.h ****         };
  80:../../libDaisy/src/per/qspi.h **** 
  81:../../libDaisy/src/per/qspi.h ****         //SCK,  CE# (active low)
  82:../../libDaisy/src/per/qspi.h ****         struct
  83:../../libDaisy/src/per/qspi.h ****         {
  84:../../libDaisy/src/per/qspi.h ****             dsy_gpio_pin io0; /**< & */
  85:../../libDaisy/src/per/qspi.h ****             dsy_gpio_pin io1; /**< & */
  86:../../libDaisy/src/per/qspi.h ****             dsy_gpio_pin io2; /**< & */
  87:../../libDaisy/src/per/qspi.h ****             dsy_gpio_pin io3; /**< & */
  88:../../libDaisy/src/per/qspi.h ****             dsy_gpio_pin clk; /**< & */
  89:../../libDaisy/src/per/qspi.h ****             dsy_gpio_pin ncs; /**< & */
  90:../../libDaisy/src/per/qspi.h ****         } pin_config;
  91:../../libDaisy/src/per/qspi.h **** 
  92:../../libDaisy/src/per/qspi.h ****         Device device;
  93:../../libDaisy/src/per/qspi.h ****         Mode   mode;
  94:../../libDaisy/src/per/qspi.h ****     };
  95:../../libDaisy/src/per/qspi.h **** 
  96:../../libDaisy/src/per/qspi.h ****     /** 
  97:../../libDaisy/src/per/qspi.h ****         Initializes QSPI peripheral, and Resets, and prepares memory for access.
  98:../../libDaisy/src/per/qspi.h ****         \param config should be populated with the mode, device and pin_config before calling this 
  99:../../libDaisy/src/per/qspi.h ****         \return Result::OK or Result::ERR
 100:../../libDaisy/src/per/qspi.h ****         */
 101:../../libDaisy/src/per/qspi.h ****     Result Init(const Config& config);
 102:../../libDaisy/src/per/qspi.h **** 
 103:../../libDaisy/src/per/qspi.h ****     /** Returns the current config. */
 104:../../libDaisy/src/per/qspi.h ****     const Config& GetConfig() const;
 105:../../libDaisy/src/per/qspi.h **** 
 106:../../libDaisy/src/per/qspi.h ****     // Couldn't this just be called before anything else in init? That
 107:../../libDaisy/src/per/qspi.h ****     // would make manually calling it unnecessary.
 108:../../libDaisy/src/per/qspi.h ****     /** 
 109:../../libDaisy/src/per/qspi.h ****         Deinitializes the peripheral
 110:../../libDaisy/src/per/qspi.h ****         This should be called before reinitializing QSPI in a different mode.
 111:../../libDaisy/src/per/qspi.h ****         \return Result::OK or Result::ERR
 112:../../libDaisy/src/per/qspi.h ****         */
 113:../../libDaisy/src/per/qspi.h ****     Result DeInit();
 114:../../libDaisy/src/per/qspi.h **** 
 115:../../libDaisy/src/per/qspi.h ****     /** 
 116:../../libDaisy/src/per/qspi.h ****         Writes a single page to to the specified address on the QSPI chip.
 117:../../libDaisy/src/per/qspi.h ****         For IS25LP*, page size is 256 bytes.
 118:../../libDaisy/src/per/qspi.h ****         \param address Address to write to
 119:../../libDaisy/src/per/qspi.h ****         \param size Buffer size
 120:../../libDaisy/src/per/qspi.h ****         \param buffer Buffer to write
 121:../../libDaisy/src/per/qspi.h ****         \return Result::OK or Result::ERR
 122:../../libDaisy/src/per/qspi.h ****         */
 123:../../libDaisy/src/per/qspi.h ****     Result WritePage(uint32_t address, uint32_t size, uint8_t* buffer);
 124:../../libDaisy/src/per/qspi.h **** 
 125:../../libDaisy/src/per/qspi.h ****     /** 
 126:../../libDaisy/src/per/qspi.h ****         Writes data in buffer to to the QSPI. Starting at address to address+size 
 127:../../libDaisy/src/per/qspi.h ****         \param address Address to write to
 128:../../libDaisy/src/per/qspi.h ****         \param size Buffer size
 129:../../libDaisy/src/per/qspi.h ****         \param buffer Buffer to write
 130:../../libDaisy/src/per/qspi.h ****         \return Result::OK or Result::ERR
ARM GAS  C:\Users\Ethan\AppData\Local\Temp\ccvTTnkl.s 			page 27


 131:../../libDaisy/src/per/qspi.h ****         */
 132:../../libDaisy/src/per/qspi.h ****     Result Write(uint32_t address, uint32_t size, uint8_t* buffer);
 133:../../libDaisy/src/per/qspi.h **** 
 134:../../libDaisy/src/per/qspi.h ****     /** 
 135:../../libDaisy/src/per/qspi.h ****         Erases the area specified on the chip.
 136:../../libDaisy/src/per/qspi.h ****         Erasures will happen by 4K, 32K or 64K increments.
 137:../../libDaisy/src/per/qspi.h ****         Smallest erase possible is 4kB at a time. (on IS25LP*)
 138:../../libDaisy/src/per/qspi.h ****         \param start_addr Address to begin erasing from
 139:../../libDaisy/src/per/qspi.h ****         \param end_addr  Address to stop erasing at
 140:../../libDaisy/src/per/qspi.h ****         \return Result::OK or Result::ERR
 141:../../libDaisy/src/per/qspi.h ****         */
 142:../../libDaisy/src/per/qspi.h ****     Result Erase(uint32_t start_addr, uint32_t end_addr);
 143:../../libDaisy/src/per/qspi.h **** 
 144:../../libDaisy/src/per/qspi.h ****     /**  
 145:../../libDaisy/src/per/qspi.h ****          Erases a single sector of the chip.  
 146:../../libDaisy/src/per/qspi.h ****         TODO: Document the size of this function. 
 147:../../libDaisy/src/per/qspi.h ****         \param address Address of sector to erase
 148:../../libDaisy/src/per/qspi.h ****         \return Result::OK or Result::ERR
 149:../../libDaisy/src/per/qspi.h ****         */
 150:../../libDaisy/src/per/qspi.h ****     Result EraseSector(uint32_t address);
 151:../../libDaisy/src/per/qspi.h **** 
 152:../../libDaisy/src/per/qspi.h ****     /** Returns the current class status. Useful for debugging.
 153:../../libDaisy/src/per/qspi.h ****      *  \returns Status
 154:../../libDaisy/src/per/qspi.h ****      */
 155:../../libDaisy/src/per/qspi.h ****     Status GetStatus();
 156:../../libDaisy/src/per/qspi.h **** 
 157:../../libDaisy/src/per/qspi.h ****     /** Returns a pointer to the actual memory used 
 158:../../libDaisy/src/per/qspi.h ****      *  The memory at this address is read-only
 159:../../libDaisy/src/per/qspi.h ****      *  to write to it use the Write function.
 160:../../libDaisy/src/per/qspi.h ****      * 
 161:../../libDaisy/src/per/qspi.h ****      *  \param offset returns the pointer starting this 
 162:../../libDaisy/src/per/qspi.h ****      *                many bytes into the memory
 163:../../libDaisy/src/per/qspi.h ****     */
 164:../../libDaisy/src/per/qspi.h ****     void* GetData(uint32_t offset = 0);
 165:../../libDaisy/src/per/qspi.h **** 
 166:../../libDaisy/src/per/qspi.h ****     QSPIHandle() : pimpl_(nullptr) {}
 728              		.loc 9 166 5 view .LVU201
 729              	.LBE182:
 730              	.LBE181:
 731              	.LBE180:
 732              	.LBE179:
 733              	.LBE178:
 734              		.loc 8 92 1 is_stmt 0 view .LVU202
 735 0000 08B5     		push	{r3, lr}
 736              		.cfi_def_cfa_offset 8
 737              		.cfi_offset 3, -8
 738              		.cfi_offset 14, -4
 739              	.LBB206:
 740              	.LBB204:
 741              	.LBB200:
 742              	.LBB198:
 743              	.LBB187:
 744              	.LBB183:
 745              	.LBB184:
 746              		.loc 9 166 34 view .LVU203
 747 0002 0A48     		ldr	r0, .L35
 748 0004 0023     		movs	r3, #0
ARM GAS  C:\Users\Ethan\AppData\Local\Temp\ccvTTnkl.s 			page 28


 749              	.LBE184:
 750              	.LBE183:
 751              	.LBE187:
 752              	.LBE198:
 753              	.LBE200:
   7:Testbed.cpp   **** static Oscillator osc;
 754              		.loc 8 7 19 view .LVU204
 755 0006 0A4A     		ldr	r2, .L35+4
 756              	.LBB201:
 757              	.LBB199:
 758              	.LBB188:
 759              	.LBB186:
 760              	.LBB185:
 761              		.loc 9 166 34 view .LVU205
 762 0008 0360     		str	r3, [r0]
 763              	.LVL52:
 764              		.loc 9 166 34 view .LVU206
 765              	.LBE185:
 766              	.LBE186:
 767              	.LBE188:
 768              	.LBB189:
 769              	.LBI189:
  76:../../libDaisy/src/hid/audio.h ****     ~AudioHandle() {}
 770              		.loc 7 76 5 is_stmt 1 view .LVU207
 771              	.LBB190:
 772              	.LBB191:
  76:../../libDaisy/src/hid/audio.h ****     ~AudioHandle() {}
 773              		.loc 7 76 35 is_stmt 0 view .LVU208
 774 000a 4361     		str	r3, [r0, #20]
 775              	.LVL53:
  76:../../libDaisy/src/hid/audio.h ****     ~AudioHandle() {}
 776              		.loc 7 76 35 view .LVU209
 777              	.LBE191:
 778              	.LBE190:
 779              	.LBE189:
 780              	.LBB192:
 781              	.LBI192:
  92:../../libDaisy/src/per/adc.h ****     ~AdcHandle() {}
 782              		.loc 6 92 5 is_stmt 1 view .LVU210
  92:../../libDaisy/src/per/adc.h ****     ~AdcHandle() {}
 783              		.loc 6 92 5 is_stmt 0 view .LVU211
 784              	.LBE192:
 785              	.LBB193:
 786              	.LBI193:
 787              		.file 10 "../../libDaisy/src/per/dac.h"
   1:../../libDaisy/src/per/dac.h **** #pragma once
   2:../../libDaisy/src/per/dac.h **** #ifndef DSY_DAC_H
   3:../../libDaisy/src/per/dac.h **** #define DSY_DAC_H
   4:../../libDaisy/src/per/dac.h **** 
   5:../../libDaisy/src/per/dac.h **** #include "daisy_core.h"
   6:../../libDaisy/src/per/dac.h **** 
   7:../../libDaisy/src/per/dac.h **** namespace daisy
   8:../../libDaisy/src/per/dac.h **** {
   9:../../libDaisy/src/per/dac.h **** /** @brief DAC handle for Built-in DAC Peripheral 
  10:../../libDaisy/src/per/dac.h ****  *  @ingroup per_analog
  11:../../libDaisy/src/per/dac.h ****  ** 
  12:../../libDaisy/src/per/dac.h ****  ** For now only Normal Mode is supported,
ARM GAS  C:\Users\Ethan\AppData\Local\Temp\ccvTTnkl.s 			page 29


  13:../../libDaisy/src/per/dac.h ****  ** Sample and hold mode provides reduced power consumption, but requires a bit more setup.
  14:../../libDaisy/src/per/dac.h ****  **
  15:../../libDaisy/src/per/dac.h ****  ** For now connecting the DAC through other internal peripherals is also not supported.
  16:../../libDaisy/src/per/dac.h ****  **
  17:../../libDaisy/src/per/dac.h ****  ** Since the DAC channels have dedicated pins we don't need to pass in a pin config like with
  18:../../libDaisy/src/per/dac.h ****  ** other modules. However, it is still important to not try to use the DAC pins for anything else.
  19:../../libDaisy/src/per/dac.h ****  ** DAC Channel 1 is on PA4, and DAC Channel 2 is on PA5
  20:../../libDaisy/src/per/dac.h ****  ***/
  21:../../libDaisy/src/per/dac.h **** class DacHandle
  22:../../libDaisy/src/per/dac.h **** {
  23:../../libDaisy/src/per/dac.h ****   public:
  24:../../libDaisy/src/per/dac.h ****     /** Return Values for the DacHandle class */
  25:../../libDaisy/src/per/dac.h ****     enum class Result
  26:../../libDaisy/src/per/dac.h ****     {
  27:../../libDaisy/src/per/dac.h ****         OK,
  28:../../libDaisy/src/per/dac.h ****         ERR,
  29:../../libDaisy/src/per/dac.h ****     };
  30:../../libDaisy/src/per/dac.h **** 
  31:../../libDaisy/src/per/dac.h ****     /** Selects which channel(s) will be configured for use. */
  32:../../libDaisy/src/per/dac.h ****     enum class Channel
  33:../../libDaisy/src/per/dac.h ****     {
  34:../../libDaisy/src/per/dac.h ****         ONE,
  35:../../libDaisy/src/per/dac.h ****         TWO,
  36:../../libDaisy/src/per/dac.h ****         BOTH,
  37:../../libDaisy/src/per/dac.h ****     };
  38:../../libDaisy/src/per/dac.h **** 
  39:../../libDaisy/src/per/dac.h ****     /** Sets the Mode for the DAC channels.
  40:../../libDaisy/src/per/dac.h ****      **
  41:../../libDaisy/src/per/dac.h ****      ** Polling mode uses the blocking mode to transmit a single value at a time.
  42:../../libDaisy/src/per/dac.h ****      **
  43:../../libDaisy/src/per/dac.h ****      ** DMA mode uses a buffer, and periodically transmits it triggering a 
  44:../../libDaisy/src/per/dac.h ****      ** callback to fill the buffer when it is ready for more samples.
  45:../../libDaisy/src/per/dac.h ****      ***/
  46:../../libDaisy/src/per/dac.h ****     enum class Mode
  47:../../libDaisy/src/per/dac.h ****     {
  48:../../libDaisy/src/per/dac.h ****         POLLING,
  49:../../libDaisy/src/per/dac.h ****         DMA,
  50:../../libDaisy/src/per/dac.h ****     };
  51:../../libDaisy/src/per/dac.h **** 
  52:../../libDaisy/src/per/dac.h ****     /** Sets the number of bits per sample transmitted out of the DAC.
  53:../../libDaisy/src/per/dac.h ****      ** The output range will be: 0V - VDDA
  54:../../libDaisy/src/per/dac.h ****      ** The resolution will be roughly: bitdepth / (VDDA - 0V) 
  55:../../libDaisy/src/per/dac.h ****      ***/
  56:../../libDaisy/src/per/dac.h ****     enum class BitDepth
  57:../../libDaisy/src/per/dac.h ****     {
  58:../../libDaisy/src/per/dac.h ****         BITS_8,
  59:../../libDaisy/src/per/dac.h ****         BITS_12
  60:../../libDaisy/src/per/dac.h ****     };
  61:../../libDaisy/src/per/dac.h **** 
  62:../../libDaisy/src/per/dac.h ****     /** Sets whether the DAC output is buffered for higher drive ability. */
  63:../../libDaisy/src/per/dac.h ****     enum class BufferState
  64:../../libDaisy/src/per/dac.h ****     {
  65:../../libDaisy/src/per/dac.h ****         ENABLED,
  66:../../libDaisy/src/per/dac.h ****         DISABLED,
  67:../../libDaisy/src/per/dac.h ****     };
  68:../../libDaisy/src/per/dac.h **** 
  69:../../libDaisy/src/per/dac.h ****     /** Configuration structure for initializing the DAC structure. */
ARM GAS  C:\Users\Ethan\AppData\Local\Temp\ccvTTnkl.s 			page 30


  70:../../libDaisy/src/per/dac.h ****     struct Config
  71:../../libDaisy/src/per/dac.h ****     {
  72:../../libDaisy/src/per/dac.h ****         /** Target Samplerate in Hz used to configure the internal 
  73:../../libDaisy/src/per/dac.h ****          ** timebase for DMA mode. Does nothing in POLLING mode.
  74:../../libDaisy/src/per/dac.h ****          ** If the value is 0 at Init time this will default to 48000Hz 
  75:../../libDaisy/src/per/dac.h ****          ** otherwise the driver will attempt meet the target.*/
  76:../../libDaisy/src/per/dac.h ****         uint32_t target_samplerate;
  77:../../libDaisy/src/per/dac.h **** 
  78:../../libDaisy/src/per/dac.h ****         Channel     chn;
  79:../../libDaisy/src/per/dac.h ****         Mode        mode;
  80:../../libDaisy/src/per/dac.h ****         BitDepth    bitdepth;
  81:../../libDaisy/src/per/dac.h ****         BufferState buff_state;
  82:../../libDaisy/src/per/dac.h ****     };
  83:../../libDaisy/src/per/dac.h **** 
  84:../../libDaisy/src/per/dac.h ****     DacHandle() : pimpl_(nullptr) {}
 788              		.loc 10 84 5 is_stmt 1 view .LVU212
 789              	.LBB194:
 790              	.LBB195:
 791              		.loc 10 84 33 is_stmt 0 view .LVU213
 792 000c 0362     		str	r3, [r0, #32]
 793              	.LVL54:
 794              		.loc 10 84 33 view .LVU214
 795              	.LBE195:
 796              	.LBE194:
 797              	.LBE193:
 798              	.LBB196:
 799              	.LBI196:
  40:../../libDaisy/src/hid/usb.h **** 
 800              		.loc 5 40 5 is_stmt 1 view .LVU215
  40:../../libDaisy/src/hid/usb.h **** 
 801              		.loc 5 40 5 is_stmt 0 view .LVU216
 802              	.LBE196:
 803              	.LBB197:
 804              	.LBI197:
  77:../../libDaisy/src/sys/system.h ****     ~System() {}
 805              		.loc 4 77 5 is_stmt 1 view .LVU217
  77:../../libDaisy/src/sys/system.h ****     ~System() {}
 806              		.loc 4 77 5 is_stmt 0 view .LVU218
 807              	.LBE197:
 808              	.LBE199:
 809              	.LBE201:
   7:Testbed.cpp   **** static Oscillator osc;
 810              		.loc 8 7 19 view .LVU219
 811 000e 0949     		ldr	r1, .L35+8
 812 0010 FFF7FEFF 		bl	__aeabi_atexit
 813              	.LVL55:
 814              	.LBB202:
 815              	.LBI202:
  15:../../DaisySP/Source/Synthesis/oscillator.h ****     ~Oscillator() {}
 816              		.loc 1 15 5 is_stmt 1 view .LVU220
  15:../../DaisySP/Source/Synthesis/oscillator.h ****     ~Oscillator() {}
 817              		.loc 1 15 5 is_stmt 0 view .LVU221
 818              	.LBE202:
   8:Testbed.cpp   **** Switch button1;
 819              		.loc 8 8 19 view .LVU222
 820 0014 064A     		ldr	r2, .L35+4
 821 0016 0849     		ldr	r1, .L35+12
ARM GAS  C:\Users\Ethan\AppData\Local\Temp\ccvTTnkl.s 			page 31


 822 0018 0848     		ldr	r0, .L35+16
 823 001a FFF7FEFF 		bl	__aeabi_atexit
 824              	.LVL56:
 825              	.LBB203:
 826              	.LBI203:
  41:../../libDaisy/src/hid/switch.h ****     ~Switch() {}
 827              		.loc 2 41 5 is_stmt 1 view .LVU223
  41:../../libDaisy/src/hid/switch.h ****     ~Switch() {}
 828              		.loc 2 41 5 is_stmt 0 view .LVU224
 829              	.LBE203:
   9:Testbed.cpp   **** 
 830              		.loc 8 9 8 view .LVU225
 831 001e 044A     		ldr	r2, .L35+4
 832 0020 0749     		ldr	r1, .L35+20
 833 0022 0848     		ldr	r0, .L35+24
 834              	.LBE204:
 835              	.LBE206:
 836              		.loc 8 92 1 view .LVU226
 837 0024 BDE80840 		pop	{r3, lr}
 838              		.cfi_restore 14
 839              		.cfi_restore 3
 840              		.cfi_def_cfa_offset 0
 841              	.LBB207:
 842              	.LBB205:
   9:Testbed.cpp   **** 
 843              		.loc 8 9 8 view .LVU227
 844 0028 FFF7FEBF 		b	__aeabi_atexit
 845              	.LVL57:
 846              	.L36:
 847              		.align	2
 848              	.L35:
 849 002c 00000000 		.word	.LANCHOR0
 850 0030 00000000 		.word	__dso_handle
 851 0034 00000000 		.word	_ZN5daisy9DaisySeedD1Ev
 852 0038 00000000 		.word	_ZN7daisysp10OscillatorD1Ev
 853 003c 00000000 		.word	.LANCHOR1
 854 0040 00000000 		.word	_ZN5daisy6SwitchD1Ev
 855 0044 00000000 		.word	.LANCHOR2
 856              	.LBE205:
 857              	.LBE207:
 858              		.cfi_endproc
 859              	.LFE4979:
 861              		.section	.init_array,"aw",%init_array
 862              		.align	2
 863 0000 00000000 		.word	_GLOBAL__sub_I_button1(target1)
 864              		.global	wf1
 865              		.global	button1
 866              		.section	.bss._ZL2hw,"aw",%nobits
 867              		.align	2
 868              		.set	.LANCHOR0,. + 0
 871              	_ZL2hw:
 872 0000 00000000 		.space	60
 872      00000000 
 872      00000000 
 872      00000000 
 872      00000000 
 873              		.section	.bss._ZL3osc,"aw",%nobits
ARM GAS  C:\Users\Ethan\AppData\Local\Temp\ccvTTnkl.s 			page 32


 874              		.align	2
 875              		.set	.LANCHOR1,. + 0
 878              	_ZL3osc:
 879 0000 00000000 		.space	40
 879      00000000 
 879      00000000 
 879      00000000 
 879      00000000 
 880              		.section	.bss.button1,"aw",%nobits
 881              		.align	2
 882              		.set	.LANCHOR2,. + 0
 885              	button1:
 886 0000 00000000 		.space	16
 886      00000000 
 886      00000000 
 886      00000000 
 887              		.section	.bss.wf1,"aw",%nobits
 888              		.align	2
 889              		.set	.LANCHOR3,. + 0
 892              	wf1:
 893 0000 00000000 		.space	4
 894              		.text
 895              	.Letext0:
 896              		.file 11 "c:\\users\\ethan\\documents\\daisytoolchain-0.3.2\\windows\\arm-none-eabi\\include\\mach
 897              		.file 12 "c:\\users\\ethan\\documents\\daisytoolchain-0.3.2\\windows\\arm-none-eabi\\include\\sys\
 898              		.file 13 "c:\\users\\ethan\\documents\\daisytoolchain-0.3.2\\windows\\arm-none-eabi\\include\\stdi
 899              		.file 14 "c:\\users\\ethan\\documents\\daisytoolchain-0.3.2\\windows\\lib\\gcc\\arm-none-eabi\\10.
 900              		.file 15 "c:\\users\\ethan\\documents\\daisytoolchain-0.3.2\\windows\\arm-none-eabi\\include\\c++\
 901              		.file 16 "c:\\users\\ethan\\documents\\daisytoolchain-0.3.2\\windows\\arm-none-eabi\\include\\c++\
 902              		.file 17 "c:\\users\\ethan\\documents\\daisytoolchain-0.3.2\\windows\\arm-none-eabi\\include\\c++\
 903              		.file 18 "c:\\users\\ethan\\documents\\daisytoolchain-0.3.2\\windows\\arm-none-eabi\\include\\c++\
 904              		.file 19 "c:\\users\\ethan\\documents\\daisytoolchain-0.3.2\\windows\\arm-none-eabi\\include\\c++\
 905              		.file 20 "c:\\users\\ethan\\documents\\daisytoolchain-0.3.2\\windows\\arm-none-eabi\\include\\c++\
 906              		.file 21 "c:\\users\\ethan\\documents\\daisytoolchain-0.3.2\\windows\\arm-none-eabi\\include\\c++\
 907              		.file 22 "c:\\users\\ethan\\documents\\daisytoolchain-0.3.2\\windows\\arm-none-eabi\\include\\c++\
 908              		.file 23 "c:\\users\\ethan\\documents\\daisytoolchain-0.3.2\\windows\\arm-none-eabi\\include\\c++\
 909              		.file 24 "c:\\users\\ethan\\documents\\daisytoolchain-0.3.2\\windows\\arm-none-eabi\\include\\c++\
 910              		.file 25 "c:\\users\\ethan\\documents\\daisytoolchain-0.3.2\\windows\\arm-none-eabi\\include\\c++\
 911              		.file 26 "c:\\users\\ethan\\documents\\daisytoolchain-0.3.2\\windows\\arm-none-eabi\\include\\c++\
 912              		.file 27 "c:\\users\\ethan\\documents\\daisytoolchain-0.3.2\\windows\\arm-none-eabi\\include\\c++\
 913              		.file 28 "c:\\users\\ethan\\documents\\daisytoolchain-0.3.2\\windows\\arm-none-eabi\\include\\c++\
 914              		.file 29 "c:\\users\\ethan\\documents\\daisytoolchain-0.3.2\\windows\\arm-none-eabi\\include\\c++\
 915              		.file 30 "c:\\users\\ethan\\documents\\daisytoolchain-0.3.2\\windows\\arm-none-eabi\\include\\c++\
 916              		.file 31 "c:\\users\\ethan\\documents\\daisytoolchain-0.3.2\\windows\\arm-none-eabi\\include\\c++\
 917              		.file 32 "c:\\users\\ethan\\documents\\daisytoolchain-0.3.2\\windows\\arm-none-eabi\\include\\c++\
 918              		.file 33 "c:\\users\\ethan\\documents\\daisytoolchain-0.3.2\\windows\\arm-none-eabi\\include\\sys\
 919              		.file 34 "c:\\users\\ethan\\documents\\daisytoolchain-0.3.2\\windows\\arm-none-eabi\\include\\sys\
 920              		.file 35 "c:\\users\\ethan\\documents\\daisytoolchain-0.3.2\\windows\\arm-none-eabi\\include\\sys\
 921              		.file 36 "c:\\users\\ethan\\documents\\daisytoolchain-0.3.2\\windows\\arm-none-eabi\\include\\math
 922              		.file 37 "c:\\users\\ethan\\documents\\daisytoolchain-0.3.2\\windows\\arm-none-eabi\\include\\stdl
 923              		.file 38 "c:\\users\\ethan\\documents\\daisytoolchain-0.3.2\\windows\\arm-none-eabi\\include\\c++\
 924              		.file 39 "../../DaisySP/Source/Control/adenv.h"
 925              		.file 40 "../../DaisySP/Source/Utility/dsp.h"
 926              		.file 41 "c:\\users\\ethan\\documents\\daisytoolchain-0.3.2\\windows\\lib\\gcc\\arm-none-eabi\\10.
 927              		.file 42 "c:\\users\\ethan\\documents\\daisytoolchain-0.3.2\\windows\\arm-none-eabi\\include\\wcha
 928              		.file 43 "c:\\users\\ethan\\documents\\daisytoolchain-0.3.2\\windows\\arm-none-eabi\\include\\loca
 929              		.file 44 "c:\\users\\ethan\\documents\\daisytoolchain-0.3.2\\windows\\arm-none-eabi\\include\\stdi
ARM GAS  C:\Users\Ethan\AppData\Local\Temp\ccvTTnkl.s 			page 33


 930              		.file 45 "c:\\users\\ethan\\documents\\daisytoolchain-0.3.2\\windows\\arm-none-eabi\\include\\c++\
 931              		.file 46 "c:\\users\\ethan\\documents\\daisytoolchain-0.3.2\\windows\\arm-none-eabi\\include\\stri
 932              		.file 47 "../../libDaisy/src/daisy_core.h"
 933              		.file 48 "../../libDaisy/src/per/tim.h"
 934              		.file 49 "../../libDaisy/src/per/sai.h"
 935              		.file 50 "../../libDaisy/src/util/wav_format.h"
 936              		.file 51 "../../libDaisy/src/dev/max11300.h"
 937              		.file 52 "../../libDaisy/src/per/gpio.h"
 938              		.file 53 "../../libDaisy/src/dev/sdram.h"
 939              		.file 54 "../../libDaisy/src/dev/sr_595.h"
 940              		.file 55 "<built-in>"
ARM GAS  C:\Users\Ethan\AppData\Local\Temp\ccvTTnkl.s 			page 34

